
zephyr.elf:     file format elf32-xtensa-le


Disassembly of section .iram0.vectors:

40080000 <_WindowOverflow4>:
40080000:	49c500        	s32e	a0, a5, -16
40080003:	49d510        	s32e	a1, a5, -12
40080006:	49e520        	s32e	a2, a5, -8
40080009:	49f530        	s32e	a3, a5, -4
4008000c:	003400        	rfwo
	...

40080040 <_WindowUnderflow4>:
40080040:	09c500        	l32e	a0, a5, -16
40080043:	09d510        	l32e	a1, a5, -12
40080046:	09e520        	l32e	a2, a5, -8
40080049:	09f530        	l32e	a3, a5, -4
4008004c:	003500        	rfwu
	...

40080050 <_xt_alloca_exc>:
40080050:	034800        	rsr.windowbase	a0
40080053:	4080f0        	rotw	-1
40080056:	03e620        	rsr.ps	a2
40080059:	343820        	extui	a3, a2, 8, 4
4008005c:	303340        	xor	a3, a3, a4
4008005f:	03f440        	rsr.misc0	a4
40080062:	113380        	slli	a3, a3, 8
40080065:	302230        	xor	a2, a2, a3
40080068:	13e620        	wsr.ps	a2
4008006b:	002010        	rsync
4008006e:	ce74f7        	bbci	a4, 31, 40080040 <_WindowUnderflow4>
40080071:	4080f0        	rotw	-1
40080074:	4878e7        	bbci	a8, 30, 400800c0 <_WindowUnderflow8>
40080077:	4080f0        	rotw	-1
4008007a:	003086        	j	40080140 <_WindowUnderflow12>
4008007d:	000000        	ill

40080080 <_WindowOverflow8>:
40080080:	49c900        	s32e	a0, a9, -16
40080083:	09d100        	l32e	a0, a1, -12
40080086:	49d910        	s32e	a1, a9, -12
40080089:	49e920        	s32e	a2, a9, -8
4008008c:	49f930        	s32e	a3, a9, -4
4008008f:	498040        	s32e	a4, a0, -32
40080092:	499050        	s32e	a5, a0, -28
40080095:	49a060        	s32e	a6, a0, -24
40080098:	49b070        	s32e	a7, a0, -20
4008009b:	003400        	rfwo
	...

400800c0 <_WindowUnderflow8>:
400800c0:	09c900        	l32e	a0, a9, -16
400800c3:	09d910        	l32e	a1, a9, -12
400800c6:	09e920        	l32e	a2, a9, -8
400800c9:	09d170        	l32e	a7, a1, -12
400800cc:	09f930        	l32e	a3, a9, -4
400800cf:	098740        	l32e	a4, a7, -32
400800d2:	099750        	l32e	a5, a7, -28
400800d5:	09a760        	l32e	a6, a7, -24
400800d8:	09b770        	l32e	a7, a7, -20
400800db:	003500        	rfwu
	...

40080100 <_WindowOverflow12>:
40080100:	49cd00        	s32e	a0, a13, -16
40080103:	09d100        	l32e	a0, a1, -12
40080106:	49dd10        	s32e	a1, a13, -12
40080109:	49ed20        	s32e	a2, a13, -8
4008010c:	49fd30        	s32e	a3, a13, -4
4008010f:	494040        	s32e	a4, a0, -48
40080112:	495050        	s32e	a5, a0, -44
40080115:	496060        	s32e	a6, a0, -40
40080118:	497070        	s32e	a7, a0, -36
4008011b:	498080        	s32e	a8, a0, -32
4008011e:	499090        	s32e	a9, a0, -28
40080121:	49a0a0        	s32e	a10, a0, -24
40080124:	49b0b0        	s32e	a11, a0, -20
40080127:	003400        	rfwo
	...

40080140 <_WindowUnderflow12>:
40080140:	09cd00        	l32e	a0, a13, -16
40080143:	09dd10        	l32e	a1, a13, -12
40080146:	09ed20        	l32e	a2, a13, -8
40080149:	09d1b0        	l32e	a11, a1, -12
4008014c:	09fd30        	l32e	a3, a13, -4
4008014f:	094b40        	l32e	a4, a11, -48
40080152:	095b50        	l32e	a5, a11, -44
40080155:	096b60        	l32e	a6, a11, -40
40080158:	097b70        	l32e	a7, a11, -36
4008015b:	098b80        	l32e	a8, a11, -32
4008015e:	099b90        	l32e	a9, a11, -28
40080161:	09aba0        	l32e	a10, a11, -24
40080164:	09bbb0        	l32e	a11, a11, -20
40080167:	003500        	rfwu
	...

40080180 <_Level2Vector>:
40080180:	c0c112        	addi	a1, a1, -64
40080183:	8109      	s32i.n	a0, a1, 32
40080185:	a129      	s32i.n	a2, a1, 40
40080187:	b139      	s32i.n	a3, a1, 44
40080189:	03c200        	rsr.eps2	a0
4008018c:	6109      	s32i.n	a0, a1, 24
4008018e:	03b200        	rsr.epc2	a0
40080191:	7109      	s32i.n	a0, a1, 28
40080193:	000246        	j	400801a0 <_after_imms2>
	...

40080198 <_handle_excint_imm2>:
40080198:	0958      	l32i.n	a5, a9, 0
4008019a:	4008      	l32i.n	a0, a0, 16

4008019c <_c_handler_imm2>:
4008019c:	080ac0        	lsx	f0, a10, a12
4008019f:	40          	.byte 0x40

400801a0 <_after_imms2>:
400801a0:	ffff21        	l32r	a2, 4008019c <_c_handler_imm2> (40080ac0 <xtensa_int2_c>)
400801a3:	fffd01        	l32r	a0, 40080198 <_handle_excint_imm2> (40080958 <_handle_excint>)
400801a6:	0000a0        	jx	a0
	...

400801c0 <_Level3Vector>:
400801c0:	c0c112        	addi	a1, a1, -64
400801c3:	8109      	s32i.n	a0, a1, 32
400801c5:	a129      	s32i.n	a2, a1, 40
400801c7:	b139      	s32i.n	a3, a1, 44
400801c9:	03c300        	rsr.eps3	a0
400801cc:	6109      	s32i.n	a0, a1, 24
400801ce:	03b300        	rsr.epc3	a0
400801d1:	7109      	s32i.n	a0, a1, 28
400801d3:	000146        	j	400801dc <_after_imms3>
	...

400801d8 <_c_handler_imm3>:
400801d8:	0b1c      	movi.n	a11, 16
400801da:	4008      	l32i.n	a0, a0, 16

400801dc <_after_imms3>:
400801dc:	ffff21        	l32r	a2, 400801d8 <_c_handler_imm3> (40080b1c <xtensa_int3_c>)
400801df:	ffee01        	l32r	a0, 40080198 <_handle_excint_imm2> (40080958 <_handle_excint>)
400801e2:	0000a0        	jx	a0
	...

40080200 <_Level4Vector>:
40080200:	c0c112        	addi	a1, a1, -64
40080203:	8109      	s32i.n	a0, a1, 32
40080205:	a129      	s32i.n	a2, a1, 40
40080207:	b139      	s32i.n	a3, a1, 44
40080209:	03c400        	rsr.eps4	a0
4008020c:	6109      	s32i.n	a0, a1, 24
4008020e:	03b400        	rsr.epc4	a0
40080211:	7109      	s32i.n	a0, a1, 28
40080213:	000146        	j	4008021c <_after_imms4>
	...

40080218 <_c_handler_imm4>:
40080218:	080ba0        	lsx	f0, a11, a10
4008021b:	40          	.byte 0x40

4008021c <_after_imms4>:
4008021c:	ffff21        	l32r	a2, 40080218 <_c_handler_imm4> (40080ba0 <xtensa_int4_c>)
4008021f:	ffde01        	l32r	a0, 40080198 <_handle_excint_imm2> (40080958 <_handle_excint>)
40080222:	0000a0        	jx	a0
	...

40080240 <_Level5Vector>:
40080240:	c0c112        	addi	a1, a1, -64
40080243:	8109      	s32i.n	a0, a1, 32
40080245:	a129      	s32i.n	a2, a1, 40
40080247:	b139      	s32i.n	a3, a1, 44
40080249:	03c500        	rsr.eps5	a0
4008024c:	6109      	s32i.n	a0, a1, 24
4008024e:	03b500        	rsr.epc5	a0
40080251:	7109      	s32i.n	a0, a1, 28
40080253:	000146        	j	4008025c <_after_imms5>
	...

40080258 <_c_handler_imm5>:
40080258:	0c0c      	movi.n	a12, 0
4008025a:	4008      	l32i.n	a0, a0, 16

4008025c <_after_imms5>:
4008025c:	ffff21        	l32r	a2, 40080258 <_c_handler_imm5> (40080c0c <xtensa_int5_c>)
4008025f:	ffce01        	l32r	a0, 40080198 <_handle_excint_imm2> (40080958 <_handle_excint>)
40080262:	0000a0        	jx	a0
	...

40080280 <_Level6Vector>:
40080280:	c0c112        	addi	a1, a1, -64
40080283:	8109      	s32i.n	a0, a1, 32
40080285:	a129      	s32i.n	a2, a1, 40
40080287:	b139      	s32i.n	a3, a1, 44
40080289:	03c600        	rsr.eps6	a0
4008028c:	6109      	s32i.n	a0, a1, 24
4008028e:	03b600        	rsr.epc6	a0
40080291:	7109      	s32i.n	a0, a1, 28
40080293:	000146        	j	4008029c <_after_imms6>
	...

40080298 <_c_handler_imm6>:
40080298:	0c6c      	movi.n	a12, -32
4008029a:	4008      	l32i.n	a0, a0, 16

4008029c <_after_imms6>:
4008029c:	ffff21        	l32r	a2, 40080298 <_c_handler_imm6> (40080c6c <xtensa_int6_c>)
4008029f:	ffbe01        	l32r	a0, 40080198 <_handle_excint_imm2> (40080958 <_handle_excint>)
400802a2:	0000a0        	jx	a0
	...

400802c0 <_Level7Vector>:
400802c0:	c0c112        	addi	a1, a1, -64
400802c3:	8109      	s32i.n	a0, a1, 32
400802c5:	a129      	s32i.n	a2, a1, 40
400802c7:	b139      	s32i.n	a3, a1, 44
400802c9:	03c700        	rsr.eps7	a0
400802cc:	6109      	s32i.n	a0, a1, 24
400802ce:	03b700        	rsr.epc7	a0
400802d1:	7109      	s32i.n	a0, a1, 28
400802d3:	000146        	j	400802dc <_after_imms7>
	...

400802d8 <_c_handler_imm7>:
400802d8:	080c84        	lsi	f8, a12, 32
400802db:	40          	.byte 0x40

400802dc <_after_imms7>:
400802dc:	ffff21        	l32r	a2, 400802d8 <_c_handler_imm7> (40080c84 <xtensa_int7_c>)
400802df:	ffae01        	l32r	a0, 40080198 <_handle_excint_imm2> (40080958 <_handle_excint>)
400802e2:	0000a0        	jx	a0
	...

40080300 <_KernelExceptionVector>:
40080300:	012c06        	j	400807b4 <_Level1Vector>
	...

40080340 <_Level1RealVector>:
40080340:	13f400        	wsr.misc0	a0
40080343:	03e800        	rsr.exccause	a0
40080346:	025066        	bnei	a0, 5, 4008034c <_not_alloca>
40080349:	ff40c6        	j	40080050 <_xt_alloca_exc>

4008034c <_not_alloca>:
4008034c:	03f400        	rsr.misc0	a0
4008034f:	011846        	j	400807b4 <_Level1Vector>
	...

400803c0 <_DoubleExceptionVector>:
400803c0:	004140        	break	1, 4
400803c3:	fffe46        	j	400803c0 <_DoubleExceptionVector>
	...

Disassembly of section text:

40080400 <__esp_platform_start-0x144>:
40080400:	40080000 	
40080404:	00040023 	
40080408:	3ffb0578 	
4008040c:	3ff480a4 	
40080410:	50d83aa1 	
40080414:	3ff4808c 	
40080418:	7fffffff 	
4008041c:	40009200 	
40080420:	3ffe01e0 	
40080424:	bff30000 	
40080428:	0032ffff 	
4008042c:	bff88000 	
40080430:	00027fff 	
40080434:	00064eff 	
40080438:	bff40000 	
4008043c:	00001fff 	
40080440:	4000681c 	
40080444:	3f400e88 	
40080448:	3f400e70 	
4008044c:	40080954 	
40080450:	400d03d8 	
40080454:	00050020 	
40080458:	3ffb025c 	
4008045c:	00408800 	
40080460:	400808ef 	
40080464:	3fffffff 	
40080468:	3ffb0448 	
4008046c:	3ffb044c 	
40080470:	c0051ff0 	
40080474:	00051fe0 	
40080478:	3ffb0144 	
4008047c:	3ffb0153 	
40080480:	3ffb0162 	
40080484:	3ffb0170 	
40080488:	3ffb017e 	
4008048c:	3f4009d4 	
40080490:	3ffb05cc 	
40080494:	3ffb03e0 	
40080498:	3ffb05d0 	
4008049c:	3ffb0388 	
400804a0:	3ffb0388 	
400804a4:	400812ac 	
400804a8:	3ffe5a30 	
400804ac:	3ffe5230 	
400804b0:	40080fd4 	
400804b4:	3ffe5e30 	
400804b8:	3ffb0183 	
400804bc:	3ffb0370 	
400804c0:	3ffb0384 	
400804c4:	3ffb0370 	
400804c8:	40081514 	
400804cc:	3ffb05cd 	
400804d0:	3ffb05a0 	
400804d4:	3ffb05cd 	
400804d8:	3ffb0594 	
400804dc:	3ffb059c 	
400804e0:	4000cff8 	
400804e4:	3ffb05a4 	
400804e8:	3ffb013c 	
400804ec:	3ffb0438 	
400804f0:	3f400ce7 	
400804f4:	3f400d29 	
400804f8:	3f400d4a 	
400804fc:	fffbfff0 	
40080500:	3ffb0574 	
40080504:	057619f1 	
40080508:	0002bb0b 	
4008050c:	00005dbf 	
40080510:	4000d280 	
40080514:	3ffb0200 	
40080518:	3ffb0205 	
4008051c:	ffff87ff 	
40080520:	ffff87fd 	
40080524:	00004002 	
40080528:	00000801 	
4008052c:	00004000 	
40080530:	3ffb0188 	
40080534:	3ffb01e0 	
40080538:	3ffb0000 	
4008053c:	40082ab4 	
40080540:	3f400ea0 	

40080544 <__esp_platform_start>:
40080544:	004136        	entry	a1, 32
40080547:	ffae81        	l32r	a8, 40080400 <_init_end> (40080000 <_WindowOverflow4>)
4008054a:	13e780        	wsr.vecbase	a8
4008054d:	00ac65        	call8	40081014 <z_bss_zero>
40080550:	ffad81        	l32r	a8, 40080404 <_init_end+0x4> (40023 <CONFIG_ESP_HEAP_MEM_POOL_REGION_1_SIZE+0x34023>)
40080553:	13e680        	wsr.ps	a8
40080556:	ffac81        	l32r	a8, 40080408 <_init_end+0x8> (3ffb0578 <_kernel>)
40080559:	13f480        	wsr.misc0	a8
4008055c:	002010        	rsync
4008055f:	ffab91        	l32r	a9, 4008040c <_init_end+0xc> (3ff480a4 <GPIO+0x40a4>)
40080562:	ffab81        	l32r	a8, 40080410 <_init_end+0x10> (50d83aa1 <_rtc_bss_end+0xd83aa1>)
40080565:	ffaba1        	l32r	a10, 40080414 <_init_end+0x14> (3ff4808c <GPIO+0x408c>)
40080568:	0020c0        	memw
4008056b:	006982        	s32i	a8, a9, 0
4008056e:	0020c0        	memw
40080571:	0a88      	l32i.n	a8, a10, 0
40080573:	ffa9b1        	l32r	a11, 40080418 <_init_end+0x18> (7fffffff <_rtc_bss_end+0x2fffffff>)
40080576:	1088b0        	and	a8, a8, a11
40080579:	0020c0        	memw
4008057c:	0a89      	s32i.n	a8, a10, 0
4008057e:	080c      	movi.n	a8, 0
40080580:	0020c0        	memw
40080583:	0989      	s32i.n	a8, a9, 0
40080585:	515e25        	call8	400d1b68 <esp_intr_initialize>
40080588:	00afa5        	call8	40081084 <z_cstart>
	...

4008058c <arch_printk_char_out>:
4008058c:	004136        	entry	a1, 32
4008058f:	079266        	bnei	a2, 10, 4008059a <arch_printk_char_out+0xe>
40080592:	da0c      	movi.n	a10, 13
40080594:	ffa281        	l32r	a8, 4008041c <_init_end+0x1c> (40009200 <esp_rom_uart_tx_one_char>)
40080597:	0008e0        	callx8	a8
4008059a:	74a020        	extui	a10, a2, 0, 8
4008059d:	ff9f81        	l32r	a8, 4008041c <_init_end+0x1c> (40009200 <esp_rom_uart_tx_one_char>)
400805a0:	0008e0        	callx8	a8
400805a3:	020c      	movi.n	a2, 0
400805a5:	f01d      	retw.n
	...

400805a8 <ets_update_cpu_frequency>:
400805a8:	004136        	entry	a1, 32
400805ab:	ff9d81        	l32r	a8, 40080420 <_init_end+0x20> (3ffe01e0 <g_ticks_per_us_pro>)
400805ae:	0829      	s32i.n	a2, a8, 0
400805b0:	f01d      	retw.n
	...

400805b4 <esp_ptr_executable>:
400805b4:	004136        	entry	a1, 32
400805b7:	ff9b81        	l32r	a8, 40080424 <_init_end+0x24> (bff30000 <_rtc_bss_end+0x6ff30000>)
400805ba:	ff9b91        	l32r	a9, 40080428 <_init_end+0x28> (32ffff <CONFIG_XTENSA_CCOUNT_HZ+0x23bdbf>)
400805bd:	828a      	add.n	a8, a2, a8
400805bf:	2bb987        	bgeu	a9, a8, 400805ee <esp_ptr_executable+0x3a>
400805c2:	ff9a81        	l32r	a8, 4008042c <_init_end+0x2c> (bff88000 <_rtc_bss_end+0x6ff88000>)
400805c5:	ff9a91        	l32r	a9, 40080430 <_init_end+0x30> (27fff <CONFIG_ESP_HEAP_MEM_POOL_REGION_1_SIZE+0x1bfff>)
400805c8:	828a      	add.n	a8, a2, a8
400805ca:	20b987        	bgeu	a9, a8, 400805ee <esp_ptr_executable+0x3a>
400805cd:	f87c      	movi.n	a8, -1
400805cf:	018820        	slli	a8, a8, 30
400805d2:	ff98a1        	l32r	a10, 40080434 <_init_end+0x34> (64eff <CONFIG_ESP_HEAP_MEM_POOL_REGION_1_SIZE+0x58eff>)
400805d5:	928a      	add.n	a9, a2, a8
400805d7:	180c      	movi.n	a8, 1
400805d9:	13ba97        	bgeu	a10, a9, 400805f0 <esp_ptr_executable+0x3c>
400805dc:	ff9791        	l32r	a9, 40080438 <_init_end+0x38> (bff40000 <_rtc_bss_end+0x6ff40000>)
400805df:	229a      	add.n	a2, a2, a9
400805e1:	ff9691        	l32r	a9, 4008043c <_init_end+0x3c> (1fff <_image_iram_start+0xd83>)
400805e4:	08b927        	bgeu	a9, a2, 400805f0 <esp_ptr_executable+0x3c>
400805e7:	080c      	movi.n	a8, 0
400805e9:	0000c6        	j	400805f0 <esp_ptr_executable+0x3c>
400805ec:	00          	.byte 00
400805ed:	00          	.byte 00
400805ee:	180c      	movi.n	a8, 1
400805f0:	042080        	extui	a2, a8, 0, 1
400805f3:	f01d      	retw.n
400805f5:	000000        	ill

400805f8 <z_xtensa_backtrace_get_start>:
400805f8:	004136        	entry	a1, 32
400805fb:	0194a5        	call8	40081f44 <xthal_window_spill>
400805fe:	002562        	l32i	a6, a5, 0
40080601:	072672        	l32i	a7, a6, 28
40080604:	006272        	s32i	a7, a2, 0
40080607:	8678      	l32i.n	a7, a6, 32
40080609:	0479      	s32i.n	a7, a4, 0
4008060b:	40c662        	addi	a6, a6, 64
4008060e:	0369      	s32i.n	a6, a3, 0
40080610:	f01d      	retw.n
	...

40080614 <shared_intr_isr>:
40080614:	004136        	entry	a1, 32
40080617:	1228      	l32i.n	a2, a2, 4
40080619:	5138e5        	call8	400d19a8 <esp_intr_lock>
4008061c:	0007c6        	j	4008063f <shared_intr_isr+0x2b>
4008061f:	00          	.byte 00
40080620:	001282        	l16ui	a8, a2, 0
40080623:	16e807        	bbsi	a8, 0, 4008063d <shared_intr_isr+0x29>
40080626:	1288      	l32i.n	a8, a2, 4
40080628:	a88c      	beqz.n	a8, 40080636 <shared_intr_isr+0x22>
4008062a:	0020c0        	memw
4008062d:	002892        	l32i	a9, a8, 0
40080630:	022282        	l32i	a8, a2, 8
40080633:	060987        	bnone	a9, a8, 4008063d <shared_intr_isr+0x29>
40080636:	3288      	l32i.n	a8, a2, 12
40080638:	42a8      	l32i.n	a10, a2, 16
4008063a:	0008e0        	callx8	a8
4008063d:	5228      	l32i.n	a2, a2, 20
4008063f:	fdd256        	bnez	a2, 40080620 <shared_intr_isr+0xc>
40080642:	513765        	call8	400d19b8 <esp_intr_unlock>
40080645:	f01d      	retw.n
	...

40080648 <esp_intr_disable>:
40080648:	004136        	entry	a1, 32
4008064b:	073216        	beqz	a2, 400806c2 <esp_intr_disable+0x7a>
4008064e:	5135a5        	call8	400d19a8 <esp_intr_lock>
40080651:	012282        	l32i	a8, a2, 4
40080654:	035816        	beqz	a8, 4008068d <esp_intr_disable+0x45>
40080657:	001892        	l16ui	a9, a8, 0
4008065a:	01a0a2        	movi	a10, 1
4008065d:	2099a0        	or	a9, a9, a10
40080660:	005892        	s16i	a9, a8, 0
40080663:	1288      	l32i.n	a8, a2, 4
40080665:	08b8      	l32i.n	a11, a8, 0
40080667:	0288      	l32i.n	a8, a2, 0
40080669:	74b1b0        	extui	a11, a11, 1, 8
4008066c:	1888      	l32i.n	a8, a8, 4
4008066e:	23bb00        	sext	a11, a11, 7
40080671:	000486        	j	40080687 <esp_intr_disable+0x3f>
40080674:	0898      	l32i.n	a9, a8, 0
40080676:	019990        	slli	a9, a9, 23
40080679:	319890        	srai	a9, a9, 24
4008067c:	0599b7        	bne	a9, a11, 40080685 <esp_intr_disable+0x3d>
4008067f:	001892        	l16ui	a9, a8, 0
40080682:	626907        	bbci	a9, 0, 400806e8 <esp_intr_disable+0xa0>
40080685:	5888      	l32i.n	a8, a8, 20
40080687:	fe9856        	bnez	a8, 40080674 <esp_intr_disable+0x2c>
4008068a:	001806        	j	400806ee <esp_intr_disable+0xa6>
4008068d:	0288      	l32i.n	a8, a2, 0
4008068f:	0888      	l32i.n	a8, a8, 0
40080691:	1188e0        	slli	a8, a8, 2
40080694:	31b880        	srai	a11, a8, 24
40080697:	011896        	bltz	a8, 400806ac <esp_intr_disable+0x64>
4008069a:	0228      	l32i.n	a2, a2, 0
4008069c:	6c0c      	movi.n	a12, 6
4008069e:	02a8      	l32i.n	a10, a2, 0
400806a0:	05a0a0        	extui	a10, a10, 16, 1
400806a3:	ff6781        	l32r	a8, 40080440 <_init_end+0x40> (4000681c <intr_matrix_set>)
400806a6:	0008e0        	callx8	a8
400806a9:	000cc6        	j	400806e0 <esp_intr_disable+0x98>
400806ac:	0228      	l32i.n	a2, a2, 0
400806ae:	03eb80        	rsr.prid	a8
400806b1:	048d80        	extui	a8, a8, 13, 1
400806b4:	0228      	l32i.n	a2, a2, 0
400806b6:	059020        	extui	a9, a2, 16, 1
400806b9:	0c1987        	beq	a9, a8, 400806c9 <esp_intr_disable+0x81>
400806bc:	201110        	or	a1, a1, a1
400806bf:	512fa5        	call8	400d19b8 <esp_intr_unlock>
400806c2:	a26c      	movi.n	a2, -22
400806c4:	000b06        	j	400806f4 <esp_intr_disable+0xac>
400806c7:	00          	.byte 00
400806c8:	00          	.byte 00
400806c9:	03e490        	rsr.intenable	a9
400806cc:	458120        	extui	a8, a2, 17, 5
400806cf:	e27c      	movi.n	a2, -2
400806d1:	401800        	ssl	a8
400806d4:	812220        	src	a2, a2, a2
400806d7:	102290        	and	a2, a2, a9
400806da:	13e420        	wsr.intenable	a2
400806dd:	002010        	rsync
400806e0:	512d65        	call8	400d19b8 <esp_intr_unlock>
400806e3:	020c      	movi.n	a2, 0
400806e5:	0002c6        	j	400806f4 <esp_intr_disable+0xac>
400806e8:	ff4bd6        	bgez	a11, 400806e0 <esp_intr_disable+0x98>
400806eb:	ffef46        	j	400806ac <esp_intr_disable+0x64>
400806ee:	fbab96        	bltz	a11, 400806ac <esp_intr_disable+0x64>
400806f1:	ffe946        	j	4008069a <esp_intr_disable+0x52>
400806f4:	f01d      	retw.n
	...

400806f8 <gpio_esp32_isr>:
400806f8:	004136        	entry	a1, 32
400806fb:	ff52a1        	l32r	a10, 40080444 <_init_end+0x44> (3f400e88 <__device_dts_ord_39>)
400806fe:	0000e5        	call8	4008070c <gpio_esp32_fire_callbacks>
40080701:	ff51a1        	l32r	a10, 40080448 <_init_end+0x48> (3f400e70 <__device_dts_ord_66>)
40080704:	000065        	call8	4008070c <gpio_esp32_fire_callbacks>
40080707:	f01d      	retw.n
40080709:	000000        	ill

4008070c <gpio_esp32_fire_callbacks>:
4008070c:	006136        	entry	a1, 48
4008070f:	1248      	l32i.n	a4, a2, 4
40080711:	4258      	l32i.n	a5, a2, 16
40080713:	03f530        	rsr.misc1	a3
40080716:	1488      	l32i.n	a8, a4, 4
40080718:	3448      	l32i.n	a4, a4, 12
4008071a:	140332        	l8ui	a3, a3, 20
4008071d:	b4dc      	bnez.n	a4, 4008073c <gpio_esp32_fire_callbacks+0x30>
4008071f:	93cc      	bnez.n	a3, 4008072c <gpio_esp32_fire_callbacks+0x20>
40080721:	0020c0        	memw
40080724:	1a2832        	l32i	a3, a8, 104
40080727:	0001c6        	j	40080732 <gpio_esp32_fire_callbacks+0x26>
4008072a:	00          	.byte 00
4008072b:	00          	.byte 00
4008072c:	0020c0        	memw
4008072f:	182832        	l32i	a3, a8, 96
40080732:	0020c0        	memw
40080735:	136832        	s32i	a3, a8, 76
40080738:	0012c6        	j	40080787 <gpio_esp32_fire_callbacks+0x7b>
4008073b:	00          	.byte 00
4008073c:	43dc      	bnez.n	a3, 40080754 <gpio_esp32_fire_callbacks+0x48>
4008073e:	0020c0        	memw
40080741:	1f2832        	l32i	a3, a8, 124
40080744:	0020c0        	memw
40080747:	1139      	s32i.n	a3, a1, 4
40080749:	0020c0        	memw
4008074c:	040132        	l8ui	a3, a1, 4
4008074f:	000486        	j	40080765 <gpio_esp32_fire_callbacks+0x59>
40080752:	00          	.byte 00
40080753:	00          	.byte 00
40080754:	0020c0        	memw
40080757:	1d2832        	l32i	a3, a8, 116
4008075a:	0020c0        	memw
4008075d:	0139      	s32i.n	a3, a1, 0
4008075f:	0020c0        	memw
40080762:	000132        	l8ui	a3, a1, 0
40080765:	0020c0        	memw
40080768:	162842        	l32i	a4, a8, 88
4008076b:	743030        	extui	a3, a3, 0, 8
4008076e:	0020c0        	memw
40080771:	2149      	s32i.n	a4, a1, 8
40080773:	744030        	extui	a4, a3, 0, 8
40080776:	0020c0        	memw
40080779:	084142        	s8i	a4, a1, 8
4008077c:	0020c0        	memw
4008077f:	2148      	l32i.n	a4, a1, 8
40080781:	0020c0        	memw
40080784:	166842        	s32i	a4, a8, 88
40080787:	53ac      	beqz.n	a3, 400807b0 <gpio_esp32_fire_callbacks+0xa4>
40080789:	15b8      	l32i.n	a11, a5, 4
4008078b:	1bac      	beqz.n	a11, 400807b0 <gpio_esp32_fire_callbacks+0xa4>
4008078d:	0b48      	l32i.n	a4, a11, 0
4008078f:	050c      	movi.n	a5, 0
40080791:	000606        	j	400807ad <gpio_esp32_fire_callbacks+0xa1>
40080794:	2bc8      	l32i.n	a12, a11, 8
40080796:	10c3c0        	and	a12, a3, a12
40080799:	5c8c      	beqz.n	a12, 400807a2 <gpio_esp32_fire_callbacks+0x96>
4008079b:	1b88      	l32i.n	a8, a11, 4
4008079d:	02ad      	mov.n	a10, a2
4008079f:	0008e0        	callx8	a8
400807a2:	058d      	mov.n	a8, a5
400807a4:	148c      	beqz.n	a4, 400807a9 <gpio_esp32_fire_callbacks+0x9d>
400807a6:	002482        	l32i	a8, a4, 0
400807a9:	04bd      	mov.n	a11, a4
400807ab:	084d      	mov.n	a4, a8
400807ad:	fe3b56        	bnez	a11, 40080794 <gpio_esp32_fire_callbacks+0x88>
400807b0:	f01d      	retw.n
	...

400807b4 <_Level1Vector>:
400807b4:	c0c112        	addi	a1, a1, -64
400807b7:	8109      	s32i.n	a0, a1, 32
400807b9:	a129      	s32i.n	a2, a1, 40
400807bb:	b139      	s32i.n	a3, a1, 44
400807bd:	03e600        	rsr.ps	a0
400807c0:	026c      	movi.n	a2, -32
400807c2:	100020        	and	a0, a0, a2
400807c5:	6109      	s32i.n	a0, a1, 24
400807c7:	03b100        	rsr.epc1	a0
400807ca:	7109      	s32i.n	a0, a1, 28
400807cc:	000206        	j	400807d8 <_after_imms1>
	...

400807d0 <_handle_excint_imm1>:
400807d0:	0958      	l32i.n	a5, a9, 0
400807d2:	4008      	l32i.n	a0, a0, 16

400807d4 <_c_handler_imm1>:
400807d4:	0cbc      	beqz.n	a12, 40080808 <z_xtensa_fatal_error+0x18>
400807d6:	4008      	l32i.n	a0, a0, 16

400807d8 <_after_imms1>:
400807d8:	ffff21        	l32r	a2, 400807d4 <_c_handler_imm1> (40080cbc <xtensa_excint1_c>)
400807db:	fffd01        	l32r	a0, 400807d0 <_handle_excint_imm1> (40080958 <_handle_excint>)
400807de:	0000a0        	jx	a0
400807e1:	000000        	ill

400807e4 <arch_cpu_idle>:
400807e4:	004136        	entry	a1, 32
400807e7:	527d65        	call8	400d2fbc <sys_trace_idle>
400807ea:	007000        	waiti	0
400807ed:	f01d      	retw.n
	...

400807f0 <z_xtensa_fatal_error>:
400807f0:	004136        	entry	a1, 32
400807f3:	00d316        	beqz	a3, 40080804 <z_xtensa_fatal_error+0x14>
400807f6:	006340        	rsil	a4, 3
400807f9:	03ad      	mov.n	a10, a3
400807fb:	007665        	call8	40080f60 <z_xtensa_dump_stack>
400807fe:	13e640        	wsr.ps	a4
40080801:	002010        	rsync
40080804:	20b330        	or	a11, a3, a3
40080807:	64a0a2        	movi	a10, 100
4008080a:	006825        	call8	40080e8c <z_xtensa_backtrace_print>
4008080d:	03bd      	mov.n	a11, a3
4008080f:	02ad      	mov.n	a10, a2
40080811:	007a25        	call8	40080fb4 <z_fatal_error>
40080814:	f01d      	retw.n
	...

40080818 <xtensa_spill_reg_windows>:
40080818:	10ccc0        	and	a12, a12, a12
4008081b:	408030        	rotw	3
4008081e:	10ccc0        	and	a12, a12, a12
40080821:	408030        	rotw	3
40080824:	10ccc0        	and	a12, a12, a12
40080827:	408030        	rotw	3
4008082a:	10ccc0        	and	a12, a12, a12
4008082d:	408030        	rotw	3
40080830:	10ccc0        	and	a12, a12, a12
40080833:	408040        	rotw	4
40080836:	f00d      	ret.n

40080838 <xtensa_save_high_regs>:
40080838:	034920        	rsr.windowstart	a2
4008083b:	113200        	slli	a3, a2, 16
4008083e:	202230        	or	a2, a2, a3
40080841:	034830        	rsr.windowbase	a3
40080844:	400300        	ssr	a3
40080847:	912020        	srl	a2, a2
4008084a:	013d      	mov.n	a3, a1
4008084c:	28e217        	bbsi	a2, 1, 40080878 <_high_gpr_spill_done>
4008084f:	f0c112        	addi	a1, a1, -16
40080852:	0149      	s32i.n	a4, a1, 0
40080854:	1159      	s32i.n	a5, a1, 4
40080856:	2169      	s32i.n	a6, a1, 8
40080858:	3179      	s32i.n	a7, a1, 12
4008085a:	1ae227        	bbsi	a2, 2, 40080878 <_high_gpr_spill_done>
4008085d:	f0c112        	addi	a1, a1, -16
40080860:	0189      	s32i.n	a8, a1, 0
40080862:	1199      	s32i.n	a9, a1, 4
40080864:	21a9      	s32i.n	a10, a1, 8
40080866:	31b9      	s32i.n	a11, a1, 12
40080868:	0ce237        	bbsi	a2, 3, 40080878 <_high_gpr_spill_done>
4008086b:	f0c112        	addi	a1, a1, -16
4008086e:	01c9      	s32i.n	a12, a1, 0
40080870:	11d9      	s32i.n	a13, a1, 4
40080872:	0261e2        	s32i	a14, a1, 8
40080875:	0361f2        	s32i	a15, a1, 12

40080878 <_high_gpr_spill_done>:
40080878:	fcc112        	addi	a1, a1, -4
4008087b:	0139      	s32i.n	a3, a1, 0
4008087d:	f00d      	ret.n
	...

40080880 <xtensa_restore_high_regs>:
40080880:	0128      	l32i.n	a2, a1, 0
40080882:	114b      	addi.n	a1, a1, 4
40080884:	023d      	mov.n	a3, a2
40080886:	261127        	beq	a1, a2, 400808b0 <_high_restore_done>
40080889:	f0c222        	addi	a2, a2, -16
4008088c:	0248      	l32i.n	a4, a2, 0
4008088e:	1258      	l32i.n	a5, a2, 4
40080890:	2268      	l32i.n	a6, a2, 8
40080892:	3278      	l32i.n	a7, a2, 12
40080894:	181127        	beq	a1, a2, 400808b0 <_high_restore_done>
40080897:	f0c222        	addi	a2, a2, -16
4008089a:	0288      	l32i.n	a8, a2, 0
4008089c:	1298      	l32i.n	a9, a2, 4
4008089e:	22a8      	l32i.n	a10, a2, 8
400808a0:	32b8      	l32i.n	a11, a2, 12
400808a2:	0a1127        	beq	a1, a2, 400808b0 <_high_restore_done>
400808a5:	f0c222        	addi	a2, a2, -16
400808a8:	02c8      	l32i.n	a12, a2, 0
400808aa:	12d8      	l32i.n	a13, a2, 4
400808ac:	22e8      	l32i.n	a14, a2, 8
400808ae:	32f8      	l32i.n	a15, a2, 12

400808b0 <_high_restore_done>:
400808b0:	031d      	mov.n	a1, a3
400808b2:	f00d      	ret.n
	...

400808b5 <_restore_context>:
400808b5:	fffc85        	call0	40080880 <xtensa_restore_high_regs>
400808b8:	7108      	l32i.n	a0, a1, 28
400808ba:	13b500        	wsr.epc5	a0
400808bd:	6108      	l32i.n	a0, a1, 24
400808bf:	13c500        	wsr.eps5	a0
400808c2:	5108      	l32i.n	a0, a1, 20
400808c4:	130300        	wsr.sar	a0
400808c7:	4108      	l32i.n	a0, a1, 16
400808c9:	130000        	wsr.lbeg	a0
400808cc:	3108      	l32i.n	a0, a1, 12
400808ce:	130100        	wsr.lend	a0
400808d1:	2108      	l32i.n	a0, a1, 8
400808d3:	130200        	wsr.lcount	a0
400808d6:	0108      	l32i.n	a0, a1, 0
400808d8:	130c00        	wsr.scompare1	a0
400808db:	002010        	rsync
400808de:	8108      	l32i.n	a0, a1, 32
400808e0:	a128      	l32i.n	a2, a1, 40
400808e2:	b138      	l32i.n	a3, a1, 44
400808e4:	40c112        	addi	a1, a1, 64
400808e7:	003510        	rfi	5
	...

400808ec <xtensa_arch_except>:
400808ec:	002136        	entry	a1, 16

400808ef <xtensa_arch_except_epc>:
400808ef:	000000        	ill
400808f2:	f01d      	retw.n

400808f4 <xtensa_switch>:
400808f4:	002136        	entry	a1, 16
400808f7:	10ccc0        	and	a12, a12, a12
400808fa:	408030        	rotw	3
400808fd:	10ccc0        	and	a12, a12, a12
40080900:	408030        	rotw	3
40080903:	10ccc0        	and	a12, a12, a12
40080906:	408030        	rotw	3
40080909:	10ccc0        	and	a12, a12, a12
4008090c:	408030        	rotw	3
4008090f:	10ccc0        	and	a12, a12, a12
40080912:	408040        	rotw	4
40080915:	c0c112        	addi	a1, a1, -64
40080918:	8109      	s32i.n	a0, a1, 32
4008091a:	a129      	s32i.n	a2, a1, 40
4008091c:	b139      	s32i.n	a3, a1, 44
4008091e:	030300        	rsr.sar	a0
40080921:	5109      	s32i.n	a0, a1, 20
40080923:	030000        	rsr.lbeg	a0
40080926:	4109      	s32i.n	a0, a1, 16
40080928:	030100        	rsr.lend	a0
4008092b:	3109      	s32i.n	a0, a1, 12
4008092d:	030200        	rsr.lcount	a0
40080930:	2109      	s32i.n	a0, a1, 8
40080932:	03e800        	rsr.exccause	a0
40080935:	1109      	s32i.n	a0, a1, 4
40080937:	030c00        	rsr.scompare1	a0
4008093a:	0109      	s32i.n	a0, a1, 0
4008093c:	03e600        	rsr.ps	a0
4008093f:	6109      	s32i.n	a0, a1, 24
40080941:	fec201        	l32r	a0, 4008044c <_init_end+0x4c> (40080954 <_switch_restore_pc>)
40080944:	7109      	s32i.n	a0, a1, 28
40080946:	ffef05        	call0	40080838 <xtensa_save_high_regs>
40080949:	0128      	l32i.n	a2, a1, 0
4008094b:	b238      	l32i.n	a3, a2, 44
4008094d:	0319      	s32i.n	a1, a3, 0
4008094f:	a218      	l32i.n	a1, a2, 40
40080951:	ffd806        	j	400808b5 <_restore_context>

40080954 <_switch_restore_pc>:
40080954:	f01d      	retw.n
	...

40080958 <_handle_excint>:
40080958:	9129      	s32i.n	a2, a1, 36
4008095a:	030300        	rsr.sar	a0
4008095d:	5109      	s32i.n	a0, a1, 20
4008095f:	030000        	rsr.lbeg	a0
40080962:	4109      	s32i.n	a0, a1, 16
40080964:	030100        	rsr.lend	a0
40080967:	3109      	s32i.n	a0, a1, 12
40080969:	030200        	rsr.lcount	a0
4008096c:	026102        	s32i	a0, a1, 8
4008096f:	03e800        	rsr.exccause	a0
40080972:	016102        	s32i	a0, a1, 4
40080975:	030c00        	rsr.scompare1	a0
40080978:	0109      	s32i.n	a0, a1, 0
4008097a:	ffebc5        	call0	40080838 <xtensa_save_high_regs>
4008097d:	0128      	l32i.n	a2, a1, 0
4008097f:	9228      	l32i.n	a2, a2, 36
40080981:	03e600        	rsr.ps	a0
40080984:	f30c      	movi.n	a3, 15
40080986:	100030        	and	a0, a0, a3
40080989:	00b056        	bnez	a0, 40080998 <_not_l1>
4008098c:	03e600        	rsr.ps	a0
4008098f:	01a032        	movi	a3, 1
40080992:	200030        	or	a0, a0, a3
40080995:	13e600        	wsr.ps	a0

40080998 <_not_l1>:
40080998:	03e600        	rsr.ps	a0
4008099b:	f36c      	movi.n	a3, -17
4008099d:	100030        	and	a0, a0, a3
400809a0:	13e600        	wsr.ps	a0
400809a3:	002010        	rsync
400809a6:	03f530        	rsr.misc1	a3
400809a9:	0308      	l32i.n	a0, a3, 0
400809ab:	708c      	beqz.n	a0, 400809b6 <_switch_stacks_3>
400809ad:	001b      	addi.n	a0, a0, 1
400809af:	0309      	s32i.n	a0, a3, 0
400809b1:	013d      	mov.n	a3, a1
400809b3:	000206        	j	400809bf <_do_call_3>

400809b6 <_switch_stacks_3>:
400809b6:	01c002        	addi	a0, a0, 1
400809b9:	006302        	s32i	a0, a3, 0
400809bc:	012332        	l32i	a3, a3, 4

400809bf <_do_call_3>:
400809bf:	036d      	mov.n	a6, a3
400809c1:	01ad      	mov.n	a10, a1
400809c3:	013d      	mov.n	a3, a1
400809c5:	02bd      	mov.n	a11, a2
400809c7:	0118      	l32i.n	a1, a1, 0
400809c9:	8108      	l32i.n	a0, a1, 32
400809cb:	40c112        	addi	a1, a1, 64
400809ce:	000095        	call4	400809d8 <_xstack_call0_5>
400809d1:	031d      	mov.n	a1, a3
400809d3:	062d      	mov.n	a2, a6
400809d5:	000386        	j	400809e7 <_xstack_returned_5>

400809d8 <_xstack_call0_5>:
400809d8:	002136        	entry	a1, 16
400809db:	021d      	mov.n	a1, a2
400809dd:	000055        	call4	400809e4 <_xstack_call1_5>
400809e0:	062d      	mov.n	a2, a6
400809e2:	f01d      	retw.n

400809e4 <_xstack_call1_5>:
400809e4:	0007a0        	jx	a7

400809e7 <_xstack_returned_5>:
400809e7:	006700        	rsil	a0, 7
400809ea:	03f530        	rsr.misc1	a3
400809ed:	0308      	l32i.n	a0, a3, 0
400809ef:	000b      	addi.n	a0, a0, -1
400809f1:	0309      	s32i.n	a0, a3, 0
400809f3:	261617        	beq	a6, a1, 40080a1d <_restore_3>
400809f6:	0118      	l32i.n	a1, a1, 0
400809f8:	8108      	l32i.n	a0, a1, 32
400809fa:	40c112        	addi	a1, a1, 64
400809fd:	10ccc0        	and	a12, a12, a12
40080a00:	408030        	rotw	3
40080a03:	10ccc0        	and	a12, a12, a12
40080a06:	408030        	rotw	3
40080a09:	10ccc0        	and	a12, a12, a12
40080a0c:	408030        	rotw	3
40080a0f:	10ccc0        	and	a12, a12, a12
40080a12:	408030        	rotw	3
40080a15:	10ccc0        	and	a12, a12, a12
40080a18:	408040        	rotw	4
40080a1b:	061d      	mov.n	a1, a6

40080a1d <_restore_3>:
40080a1d:	ffa506        	j	400808b5 <_restore_context>

40080a20 <return_to>:
40080a20:	004136        	entry	a1, 32
40080a23:	fe7981        	l32r	a8, 40080408 <_init_end+0x8> (3ffb0578 <_kernel>)
40080a26:	02ad      	mov.n	a10, a2
40080a28:	0888      	l32i.n	a8, a8, 0
40080a2a:	0228f6        	bgeui	a8, 2, 40080a30 <return_to+0x10>
40080a2d:	00e1a5        	call8	40081848 <z_get_next_switch_handle>
40080a30:	0a2d      	mov.n	a2, a10
40080a32:	f01d      	retw.n

40080a34 <xtensa_init_stack>:
40080a34:	006136        	entry	a1, 48
40080a37:	ffaf82        	movi	a8, -1
40080a3a:	146282        	s32i	a8, a2, 80
40080a3d:	d0c382        	addi	a8, a3, -48
40080a40:	006182        	s32i	a8, a1, 0
40080a43:	30a0c2        	movi	a12, 48
40080a46:	0b0c      	movi.n	a11, 0
40080a48:	08ad      	mov.n	a10, a8
40080a4a:	0211a5        	call8	40082b64 <memset>
40080a4d:	fe8091        	l32r	a9, 40080450 <_init_end+0x50> (400d03d8 <z_thread_entry>)
40080a50:	ecc322        	addi	a2, a3, -20
40080a53:	0299      	s32i.n	a9, a2, 0
40080a55:	fe7f91        	l32r	a9, 40080454 <_init_end+0x54> (50020 <CONFIG_ESP_HEAP_MEM_POOL_REGION_1_SIZE+0x44020>)
40080a58:	e8c322        	addi	a2, a3, -24
40080a5b:	0299      	s32i.n	a9, a2, 0
40080a5d:	ccc322        	addi	a2, a3, -52
40080a60:	0259      	s32i.n	a5, a2, 0
40080a62:	c8c322        	addi	a2, a3, -56
40080a65:	0249      	s32i.n	a4, a2, 0
40080a67:	020c      	movi.n	a2, 0
40080a69:	c4c342        	addi	a4, a3, -60
40080a6c:	0429      	s32i.n	a2, a4, 0
40080a6e:	c0c342        	addi	a4, a3, -64
40080a71:	0429      	s32i.n	a2, a4, 0
40080a73:	bcc342        	addi	a4, a3, -68
40080a76:	0429      	s32i.n	a2, a4, 0
40080a78:	b8c342        	addi	a4, a3, -72
40080a7b:	0429      	s32i.n	a2, a4, 0
40080a7d:	b4c322        	addi	a2, a3, -76
40080a80:	0279      	s32i.n	a7, a2, 0
40080a82:	b0c322        	addi	a2, a3, -80
40080a85:	0269      	s32i.n	a6, a2, 0
40080a87:	0188      	l32i.n	a8, a1, 0
40080a89:	acc322        	addi	a2, a3, -84
40080a8c:	0289      	s32i.n	a8, a2, 0
40080a8e:	f01d      	retw.n

40080a90 <arch_new_thread>:
40080a90:	004136        	entry	a1, 32
40080a93:	0821f2        	l32i	a15, a1, 32
40080a96:	20e770        	or	a14, a7, a7
40080a99:	20d660        	or	a13, a6, a6
40080a9c:	05cd      	mov.n	a12, a5
40080a9e:	04bd      	mov.n	a11, a4
40080aa0:	02ad      	mov.n	a10, a2
40080aa2:	fff925        	call8	40080a34 <xtensa_init_stack>
40080aa5:	1262a2        	s32i	a10, a2, 72
40080aa8:	f01d      	retw.n
	...

40080aac <z_irq_spurious>:
40080aac:	004136        	entry	a1, 32
40080aaf:	03e280        	rsr.interrupt	a8
40080ab2:	03e480        	rsr.intenable	a8
40080ab5:	0b0c      	movi.n	a11, 0
40080ab7:	1a0c      	movi.n	a10, 1
40080ab9:	ffd365        	call8	400807f0 <z_xtensa_fatal_error>
40080abc:	f01d      	retw.n
	...

40080ac0 <xtensa_int2_c>:
40080ac0:	004136        	entry	a1, 32
40080ac3:	03e240        	rsr.interrupt	a4
40080ac6:	03e430        	rsr.intenable	a3
40080ac9:	150c      	movi.n	a5, 1
40080acb:	104430        	and	a4, a4, a3
40080ace:	0155c0        	slli	a5, a5, 20
40080ad1:	130c      	movi.n	a3, 1
40080ad3:	0133d0        	slli	a3, a3, 19
40080ad6:	0e8437        	bany	a4, a3, 40080ae8 <xtensa_int2_c+0x28>
40080ad9:	108457        	bany	a4, a5, 40080aed <xtensa_int2_c+0x2d>
40080adc:	130c      	movi.n	a3, 1
40080ade:	0133b0        	slli	a3, a3, 21
40080ae1:	118437        	bany	a4, a3, 40080af6 <xtensa_int2_c+0x36>
40080ae4:	000986        	j	40080b0e <xtensa_int2_c+0x4e>
40080ae7:	00          	.byte 00
40080ae8:	381c      	movi.n	a8, 19
40080aea:	000286        	j	40080af8 <xtensa_int2_c+0x38>
40080aed:	481c      	movi.n	a8, 20
40080aef:	053d      	mov.n	a3, a5
40080af1:	0000c6        	j	40080af8 <xtensa_int2_c+0x38>
40080af4:	00          	.byte 00
40080af5:	00          	.byte 00
40080af6:	581c      	movi.n	a8, 21
40080af8:	fe5891        	l32r	a9, 40080458 <_init_end+0x58> (3ffb025c <_sw_isr_table>)
40080afb:	304430        	xor	a4, a4, a3
40080afe:	b08890        	addx8	a8, a8, a9
40080b01:	1898      	l32i.n	a9, a8, 4
40080b03:	08a8      	l32i.n	a10, a8, 0
40080b05:	0009e0        	callx8	a9
40080b08:	13e330        	wsr.intclear	a3
40080b0b:	fff086        	j	40080ad1 <xtensa_int2_c+0x11>
40080b0e:	20a220        	or	a10, a2, a2
40080b11:	fff0e5        	call8	40080a20 <return_to>
40080b14:	202aa0        	or	a2, a10, a10
40080b17:	000090        	retw
	...

40080b1c <xtensa_int3_c>:
40080b1c:	004136        	entry	a1, 32
40080b1f:	03e240        	rsr.interrupt	a4
40080b22:	03e430        	rsr.intenable	a3
40080b25:	150c      	movi.n	a5, 1
40080b27:	104430        	and	a4, a4, a3
40080b2a:	016590        	slli	a6, a5, 23
40080b2d:	771c      	movi.n	a7, 23
40080b2f:	fe4b31        	l32r	a3, 4008045c <_init_end+0x5c> (408800 <CONFIG_FLASH_SIZE+0x8800>)
40080b32:	160437        	bnone	a4, a3, 40080b4c <xtensa_int3_c+0x30>
40080b35:	113550        	slli	a3, a5, 11
40080b38:	268437        	bany	a4, a3, 40080b62 <xtensa_int3_c+0x46>
40080b3b:	130c      	movi.n	a3, 1
40080b3d:	113310        	slli	a3, a3, 15
40080b40:	248437        	bany	a4, a3, 40080b68 <xtensa_int3_c+0x4c>
40080b43:	0135a0        	slli	a3, a5, 22
40080b46:	480437        	bnone	a4, a3, 40080b92 <xtensa_int3_c+0x76>
40080b49:	000806        	j	40080b6d <xtensa_int3_c+0x51>
40080b4c:	228467        	bany	a4, a6, 40080b72 <xtensa_int3_c+0x56>
40080b4f:	130c      	movi.n	a3, 1
40080b51:	013350        	slli	a3, a3, 27
40080b54:	228437        	bany	a4, a3, 40080b7a <xtensa_int3_c+0x5e>
40080b57:	013530        	slli	a3, a5, 29
40080b5a:	340437        	bnone	a4, a3, 40080b92 <xtensa_int3_c+0x76>
40080b5d:	d81c      	movi.n	a8, 29
40080b5f:	000646        	j	40080b7c <xtensa_int3_c+0x60>
40080b62:	b80c      	movi.n	a8, 11
40080b64:	000506        	j	40080b7c <xtensa_int3_c+0x60>
40080b67:	00          	.byte 00
40080b68:	f80c      	movi.n	a8, 15
40080b6a:	000386        	j	40080b7c <xtensa_int3_c+0x60>
40080b6d:	681c      	movi.n	a8, 22
40080b6f:	000246        	j	40080b7c <xtensa_int3_c+0x60>
40080b72:	078d      	mov.n	a8, a7
40080b74:	063d      	mov.n	a3, a6
40080b76:	000086        	j	40080b7c <xtensa_int3_c+0x60>
40080b79:	00          	.byte 00
40080b7a:	b81c      	movi.n	a8, 27
40080b7c:	fe3791        	l32r	a9, 40080458 <_init_end+0x58> (3ffb025c <_sw_isr_table>)
40080b7f:	304430        	xor	a4, a4, a3
40080b82:	b08890        	addx8	a8, a8, a9
40080b85:	1898      	l32i.n	a9, a8, 4
40080b87:	08a8      	l32i.n	a10, a8, 0
40080b89:	0009e0        	callx8	a9
40080b8c:	13e330        	wsr.intclear	a3
40080b8f:	ffe706        	j	40080b2f <xtensa_int3_c+0x13>
40080b92:	20a220        	or	a10, a2, a2
40080b95:	ffe8a5        	call8	40080a20 <return_to>
40080b98:	202aa0        	or	a2, a10, a10
40080b9b:	000090        	retw
	...

40080ba0 <xtensa_int4_c>:
40080ba0:	004136        	entry	a1, 32
40080ba3:	03e240        	rsr.interrupt	a4
40080ba6:	03e430        	rsr.intenable	a3
40080ba9:	150c      	movi.n	a5, 1
40080bab:	104430        	and	a4, a4, a3
40080bae:	330c      	movi.n	a3, 3
40080bb0:	013380        	slli	a3, a3, 24
40080bb3:	110437        	bnone	a4, a3, 40080bc8 <xtensa_int4_c+0x28>
40080bb6:	013580        	slli	a3, a5, 24
40080bb9:	1f8437        	bany	a4, a3, 40080bdc <xtensa_int4_c+0x3c>
40080bbc:	130c      	movi.n	a3, 1
40080bbe:	013370        	slli	a3, a3, 25
40080bc1:	390437        	bnone	a4, a3, 40080bfe <xtensa_int4_c+0x5e>
40080bc4:	000646        	j	40080be1 <xtensa_int4_c+0x41>
40080bc7:	00          	.byte 00
40080bc8:	013540        	slli	a3, a5, 28
40080bcb:	178437        	bany	a4, a3, 40080be6 <xtensa_int4_c+0x46>
40080bce:	130c      	movi.n	a3, 1
40080bd0:	013320        	slli	a3, a3, 30
40080bd3:	270437        	bnone	a4, a3, 40080bfe <xtensa_int4_c+0x5e>
40080bd6:	e81c      	movi.n	a8, 30
40080bd8:	000306        	j	40080be8 <xtensa_int4_c+0x48>
40080bdb:	00          	.byte 00
40080bdc:	881c      	movi.n	a8, 24
40080bde:	000186        	j	40080be8 <xtensa_int4_c+0x48>
40080be1:	981c      	movi.n	a8, 25
40080be3:	000046        	j	40080be8 <xtensa_int4_c+0x48>
40080be6:	c81c      	movi.n	a8, 28
40080be8:	fe1c91        	l32r	a9, 40080458 <_init_end+0x58> (3ffb025c <_sw_isr_table>)
40080beb:	304430        	xor	a4, a4, a3
40080bee:	b08890        	addx8	a8, a8, a9
40080bf1:	1898      	l32i.n	a9, a8, 4
40080bf3:	08a8      	l32i.n	a10, a8, 0
40080bf5:	0009e0        	callx8	a9
40080bf8:	13e330        	wsr.intclear	a3
40080bfb:	ffebc6        	j	40080bae <xtensa_int4_c+0xe>
40080bfe:	20a220        	or	a10, a2, a2
40080c01:	ffe1e5        	call8	40080a20 <return_to>
40080c04:	202aa0        	or	a2, a10, a10
40080c07:	000090        	retw
	...

40080c0c <xtensa_int5_c>:
40080c0c:	004136        	entry	a1, 32
40080c0f:	03e240        	rsr.interrupt	a4
40080c12:	03e430        	rsr.intenable	a3
40080c15:	150c      	movi.n	a5, 1
40080c17:	104430        	and	a4, a4, a3
40080c1a:	015560        	slli	a5, a5, 26
40080c1d:	130c      	movi.n	a3, 1
40080c1f:	113300        	slli	a3, a3, 16
40080c22:	088437        	bany	a4, a3, 40080c2e <xtensa_int5_c+0x22>
40080c25:	0b8457        	bany	a4, a5, 40080c34 <xtensa_int5_c+0x28>
40080c28:	012496        	bltz	a4, 40080c3e <xtensa_int5_c+0x32>
40080c2b:	000bc6        	j	40080c5e <xtensa_int5_c+0x52>
40080c2e:	081c      	movi.n	a8, 16
40080c30:	000506        	j	40080c48 <xtensa_int5_c+0x3c>
40080c33:	00          	.byte 00
40080c34:	a81c      	movi.n	a8, 26
40080c36:	053d      	mov.n	a3, a5
40080c38:	000306        	j	40080c48 <xtensa_int5_c+0x3c>
40080c3b:	00          	.byte 00
40080c3c:	00          	.byte 00
40080c3d:	00          	.byte 00
40080c3e:	f81c      	movi.n	a8, 31
40080c40:	f37c      	movi.n	a3, -1
40080c42:	401800        	ssl	a8
40080c45:	a13300        	sll	a3, a3
40080c48:	fe0491        	l32r	a9, 40080458 <_init_end+0x58> (3ffb025c <_sw_isr_table>)
40080c4b:	304430        	xor	a4, a4, a3
40080c4e:	b08890        	addx8	a8, a8, a9
40080c51:	1898      	l32i.n	a9, a8, 4
40080c53:	08a8      	l32i.n	a10, a8, 0
40080c55:	0009e0        	callx8	a9
40080c58:	13e330        	wsr.intclear	a3
40080c5b:	ffef86        	j	40080c1d <xtensa_int5_c+0x11>
40080c5e:	20a220        	or	a10, a2, a2
40080c61:	ffdbe5        	call8	40080a20 <return_to>
40080c64:	202aa0        	or	a2, a10, a10
40080c67:	000090        	retw
	...

40080c6c <xtensa_int6_c>:
40080c6c:	004136        	entry	a1, 32
40080c6f:	20a220        	or	a10, a2, a2
40080c72:	03e280        	rsr.interrupt	a8
40080c75:	03e480        	rsr.intenable	a8
40080c78:	ffda65        	call8	40080a20 <return_to>
40080c7b:	202aa0        	or	a2, a10, a10
40080c7e:	000090        	retw
40080c81:	000000        	ill

40080c84 <xtensa_int7_c>:
40080c84:	004136        	entry	a1, 32
40080c87:	03e240        	rsr.interrupt	a4
40080c8a:	03e430        	rsr.intenable	a3
40080c8d:	fdf251        	l32r	a5, 40080458 <_init_end+0x58> (3ffb025c <_sw_isr_table>)
40080c90:	104430        	and	a4, a4, a3
40080c93:	01a032        	movi	a3, 1
40080c96:	113320        	slli	a3, a3, 14
40080c99:	110437        	bnone	a4, a3, 40080cae <xtensa_int7_c+0x2a>
40080c9c:	1d2582        	l32i	a8, a5, 116
40080c9f:	1c25a2        	l32i	a10, a5, 112
40080ca2:	304430        	xor	a4, a4, a3
40080ca5:	0008e0        	callx8	a8
40080ca8:	13e330        	wsr.intclear	a3
40080cab:	fff906        	j	40080c93 <xtensa_int7_c+0xf>
40080cae:	20a220        	or	a10, a2, a2
40080cb1:	ffd6e5        	call8	40080a20 <return_to>
40080cb4:	202aa0        	or	a2, a10, a10
40080cb7:	000090        	retw
	...

40080cbc <xtensa_excint1_c>:
40080cbc:	006136        	entry	a1, 48
40080cbf:	0248      	l32i.n	a4, a2, 0
40080cc1:	03e860        	rsr.exccause	a6
40080cc4:	024626        	beqi	a6, 4, 40080cca <xtensa_excint1_c+0xe>
40080cc7:	004846        	j	40080dec <xtensa_excint1_c+0x130>
40080cca:	03e240        	rsr.interrupt	a4
40080ccd:	03e430        	rsr.intenable	a3
40080cd0:	150c      	movi.n	a5, 1
40080cd2:	0175f0        	slli	a7, a5, 17
40080cd5:	104430        	and	a4, a4, a3
40080cd8:	80a782        	movi	a8, 0x780
40080cdb:	115540        	slli	a5, a5, 12
40080cde:	643040        	extui	a3, a4, 0, 7
40080ce1:	048316        	beqz	a3, 40080d2d <xtensa_excint1_c+0x71>
40080ce4:	243040        	extui	a3, a4, 0, 3
40080ce7:	739c      	beqz.n	a3, 40080d02 <xtensa_excint1_c+0x46>
40080ce9:	043040        	extui	a3, a4, 0, 1
40080cec:	098356        	bnez	a3, 40080d88 <xtensa_excint1_c+0xcc>
40080cef:	2a0c      	movi.n	a10, 2
40080cf1:	0204a7        	bnone	a4, a10, 40080cf7 <xtensa_excint1_c+0x3b>
40080cf4:	002546        	j	40080d8d <xtensa_excint1_c+0xd1>
40080cf7:	430c      	movi.n	a3, 4
40080cf9:	028437        	bany	a4, a3, 40080cff <xtensa_excint1_c+0x43>
40080cfc:	004686        	j	40080e1a <xtensa_excint1_c+0x15e>
40080cff:	002446        	j	40080d94 <xtensa_excint1_c+0xd8>
40080d02:	831c      	movi.n	a3, 24
40080d04:	120437        	bnone	a4, a3, 40080d1a <xtensa_excint1_c+0x5e>
40080d07:	830c      	movi.n	a3, 8
40080d09:	020437        	bnone	a4, a3, 40080d0f <xtensa_excint1_c+0x53>
40080d0c:	002246        	j	40080d99 <xtensa_excint1_c+0xdd>
40080d0f:	031c      	movi.n	a3, 16
40080d11:	028437        	bany	a4, a3, 40080d17 <xtensa_excint1_c+0x5b>
40080d14:	004086        	j	40080e1a <xtensa_excint1_c+0x15e>
40080d17:	0020c6        	j	40080d9e <xtensa_excint1_c+0xe2>
40080d1a:	032c      	movi.n	a3, 32
40080d1c:	020437        	bnone	a4, a3, 40080d22 <xtensa_excint1_c+0x66>
40080d1f:	002006        	j	40080da3 <xtensa_excint1_c+0xe7>
40080d22:	034c      	movi.n	a3, 64
40080d24:	028437        	bany	a4, a3, 40080d2a <xtensa_excint1_c+0x6e>
40080d27:	003bc6        	j	40080e1a <xtensa_excint1_c+0x15e>
40080d2a:	001e86        	j	40080da8 <xtensa_excint1_c+0xec>
40080d2d:	290487        	bnone	a4, a8, 40080d5a <xtensa_excint1_c+0x9e>
40080d30:	80a132        	movi	a3, 0x180
40080d33:	110437        	bnone	a4, a3, 40080d48 <xtensa_excint1_c+0x8c>
40080d36:	80a032        	movi	a3, 128
40080d39:	708437        	bany	a4, a3, 40080dad <xtensa_excint1_c+0xf1>
40080d3c:	00a132        	movi	a3, 0x100
40080d3f:	028437        	bany	a4, a3, 40080d45 <xtensa_excint1_c+0x89>
40080d42:	003506        	j	40080e1a <xtensa_excint1_c+0x15e>
40080d45:	001a86        	j	40080db3 <xtensa_excint1_c+0xf7>
40080d48:	00a232        	movi	a3, 0x200
40080d4b:	698437        	bany	a4, a3, 40080db8 <xtensa_excint1_c+0xfc>
40080d4e:	00a432        	movi	a3, 0x400
40080d51:	028437        	bany	a4, a3, 40080d57 <xtensa_excint1_c+0x9b>
40080d54:	003086        	j	40080e1a <xtensa_excint1_c+0x15e>
40080d57:	001886        	j	40080dbd <xtensa_excint1_c+0x101>
40080d5a:	330c      	movi.n	a3, 3
40080d5c:	113340        	slli	a3, a3, 12
40080d5f:	110437        	bnone	a4, a3, 40080d74 <xtensa_excint1_c+0xb8>
40080d62:	5c8457        	bany	a4, a5, 40080dc2 <xtensa_excint1_c+0x106>
40080d65:	130c      	movi.n	a3, 1
40080d67:	113330        	slli	a3, a3, 13
40080d6a:	028437        	bany	a4, a3, 40080d70 <xtensa_excint1_c+0xb4>
40080d6d:	002a46        	j	40080e1a <xtensa_excint1_c+0x15e>
40080d70:	001546        	j	40080dc9 <xtensa_excint1_c+0x10d>
40080d73:	00          	.byte 00
40080d74:	568477        	bany	a4, a7, 40080dce <xtensa_excint1_c+0x112>
40080d77:	130c      	movi.n	a3, 1
40080d79:	0133e0        	slli	a3, a3, 18
40080d7c:	028437        	bany	a4, a3, 40080d82 <xtensa_excint1_c+0xc6>
40080d7f:	0025c6        	j	40080e1a <xtensa_excint1_c+0x15e>
40080d82:	291c      	movi.n	a9, 18
40080d84:	001286        	j	40080dd2 <xtensa_excint1_c+0x116>
40080d87:	00          	.byte 00
40080d88:	090c      	movi.n	a9, 0
40080d8a:	001106        	j	40080dd2 <xtensa_excint1_c+0x116>
40080d8d:	190c      	movi.n	a9, 1
40080d8f:	0a3d      	mov.n	a3, a10
40080d91:	000f46        	j	40080dd2 <xtensa_excint1_c+0x116>
40080d94:	0a9d      	mov.n	a9, a10
40080d96:	000e06        	j	40080dd2 <xtensa_excint1_c+0x116>
40080d99:	390c      	movi.n	a9, 3
40080d9b:	000cc6        	j	40080dd2 <xtensa_excint1_c+0x116>
40080d9e:	069d      	mov.n	a9, a6
40080da0:	000b86        	j	40080dd2 <xtensa_excint1_c+0x116>
40080da3:	590c      	movi.n	a9, 5
40080da5:	000a46        	j	40080dd2 <xtensa_excint1_c+0x116>
40080da8:	690c      	movi.n	a9, 6
40080daa:	000906        	j	40080dd2 <xtensa_excint1_c+0x116>
40080dad:	790c      	movi.n	a9, 7
40080daf:	0007c6        	j	40080dd2 <xtensa_excint1_c+0x116>
40080db2:	00          	.byte 00
40080db3:	890c      	movi.n	a9, 8
40080db5:	000646        	j	40080dd2 <xtensa_excint1_c+0x116>
40080db8:	990c      	movi.n	a9, 9
40080dba:	000506        	j	40080dd2 <xtensa_excint1_c+0x116>
40080dbd:	a90c      	movi.n	a9, 10
40080dbf:	0003c6        	j	40080dd2 <xtensa_excint1_c+0x116>
40080dc2:	c90c      	movi.n	a9, 12
40080dc4:	053d      	mov.n	a3, a5
40080dc6:	000206        	j	40080dd2 <xtensa_excint1_c+0x116>
40080dc9:	d90c      	movi.n	a9, 13
40080dcb:	0000c6        	j	40080dd2 <xtensa_excint1_c+0x116>
40080dce:	191c      	movi.n	a9, 17
40080dd0:	073d      	mov.n	a3, a7
40080dd2:	fda1a1        	l32r	a10, 40080458 <_init_end+0x58> (3ffb025c <_sw_isr_table>)
40080dd5:	304430        	xor	a4, a4, a3
40080dd8:	b099a0        	addx8	a9, a9, a10
40080ddb:	19b8      	l32i.n	a11, a9, 4
40080ddd:	09a8      	l32i.n	a10, a9, 0
40080ddf:	0189      	s32i.n	a8, a1, 0
40080de1:	000be0        	callx8	a11
40080de4:	13e330        	wsr.intclear	a3
40080de7:	0188      	l32i.n	a8, a1, 0
40080de9:	ffbc46        	j	40080cde <xtensa_excint1_c+0x22>
40080dec:	7438      	l32i.n	a3, a4, 28
40080dee:	061666        	bnei	a6, 1, 40080df8 <xtensa_excint1_c+0x13c>
40080df1:	333b      	addi.n	a3, a3, 3
40080df3:	7439      	s32i.n	a3, a4, 28
40080df5:	000846        	j	40080e1a <xtensa_excint1_c+0x15e>
40080df8:	03ee50        	rsr.excvaddr	a5
40080dfb:	26dc      	bnez.n	a6, 40080e11 <xtensa_excint1_c+0x155>
40080dfd:	fd9851        	l32r	a5, 40080460 <_init_end+0x60> (400808ef <xtensa_arch_except_epc>)
40080e00:	0d9537        	bne	a5, a3, 40080e11 <xtensa_excint1_c+0x155>
40080e03:	f53c      	movi.n	a5, 63
40080e05:	13e850        	wsr.exccause	a5
40080e08:	333b      	addi.n	a3, a3, 3
40080e0a:	a4a8      	l32i.n	a10, a4, 40
40080e0c:	7439      	s32i.n	a3, a4, 28
40080e0e:	000086        	j	40080e14 <xtensa_excint1_c+0x158>
40080e11:	00a0a2        	movi	a10, 0
40080e14:	20b220        	or	a11, a2, a2
40080e17:	ff9da5        	call8	400807f0 <z_xtensa_fatal_error>
40080e1a:	20a220        	or	a10, a2, a2
40080e1d:	ffc025        	call8	40080a20 <return_to>
40080e20:	0a2d      	mov.n	a2, a10
40080e22:	f01d      	retw.n

40080e24 <z_xtensa_cpu_process_stack_pc>:
40080e24:	004136        	entry	a1, 32
40080e27:	01f2d6        	bgez	a2, 40080e4a <z_xtensa_cpu_process_stack_pc+0x26>
40080e2a:	fd8f91        	l32r	a9, 40080468 <_init_end+0x68> (3ffb0448 <cause>)
40080e2d:	fd8d81        	l32r	a8, 40080464 <_init_end+0x64> (3fffffff <dram0_seg_1_heap+0x199cf>)
40080e30:	0998      	l32i.n	a9, a9, 0
40080e32:	102280        	and	a2, a2, a8
40080e35:	481c      	movi.n	a8, 20
40080e37:	071987        	beq	a9, a8, 40080e42 <z_xtensa_cpu_process_stack_pc+0x1e>
40080e3a:	fd8c81        	l32r	a8, 4008046c <_init_end+0x6c> (3ffb044c <mask>)
40080e3d:	0888      	l32i.n	a8, a8, 0
40080e3f:	000106        	j	40080e47 <z_xtensa_cpu_process_stack_pc+0x23>
40080e42:	180c      	movi.n	a8, 1
40080e44:	018820        	slli	a8, a8, 30
40080e47:	202280        	or	a2, a2, a8
40080e4a:	fdc222        	addi	a2, a2, -3
40080e4d:	f01d      	retw.n
	...

40080e50 <z_xtensa_backtrace_get_next_frame>:
40080e50:	004136        	entry	a1, 32
40080e53:	012282        	l32i	a8, a2, 4
40080e56:	0222a2        	l32i	a10, a2, 8
40080e59:	f0c892        	addi	a9, a8, -16
40080e5c:	02a9      	s32i.n	a10, a2, 0
40080e5e:	0998      	l32i.n	a9, a9, 0
40080e60:	f4c882        	addi	a8, a8, -12
40080e63:	2299      	s32i.n	a9, a2, 8
40080e65:	0888      	l32i.n	a8, a8, 0
40080e67:	fd8291        	l32r	a9, 40080470 <_init_end+0x70> (c0051ff0 <_rtc_bss_end+0x70051ff0>)
40080e6a:	fd82b1        	l32r	a11, 40080474 <_init_end+0x74> (51fe0 <CONFIG_ESP_HEAP_MEM_POOL_REGION_1_SIZE+0x45fe0>)
40080e6d:	1289      	s32i.n	a8, a2, 4
40080e6f:	989a      	add.n	a9, a8, a9
40080e71:	020c      	movi.n	a2, 0
40080e73:	0d3b97        	bltu	a11, a9, 40080e84 <z_xtensa_backtrace_get_next_frame+0x34>
40080e76:	348080        	extui	a8, a8, 0, 4
40080e79:	079827        	bne	a8, a2, 40080e84 <z_xtensa_backtrace_get_next_frame+0x34>
40080e7c:	fffa65        	call8	40080e24 <z_xtensa_cpu_process_stack_pc>
40080e7f:	ff7365        	call8	400805b4 <esp_ptr_executable>
40080e82:	0a2d      	mov.n	a2, a10
40080e84:	042020        	extui	a2, a2, 0, 1
40080e87:	f01d      	retw.n
40080e89:	000000        	ill

40080e8c <z_xtensa_backtrace_print>:
40080e8c:	006136        	entry	a1, 48
40080e8f:	f47c      	movi.n	a4, -1
40080e91:	0212e6        	bgei	a2, 1, 40080e97 <z_xtensa_backtrace_print+0xb>
40080e94:	003086        	j	40080f5a <z_xtensa_backtrace_print+0xce>
40080e97:	03dd      	mov.n	a13, a3
40080e99:	c18b      	addi.n	a12, a1, 8
40080e9b:	b14b      	addi.n	a11, a1, 4
40080e9d:	01ad      	mov.n	a10, a1
40080e9f:	ff75a5        	call8	400805f8 <z_xtensa_backtrace_get_start>
40080ea2:	0348      	l32i.n	a4, a3, 0
40080ea4:	1448      	l32i.n	a4, a4, 4
40080ea6:	043d      	mov.n	a3, a4
40080ea8:	fd7051        	l32r	a5, 40080468 <_init_end+0x68> (3ffb0448 <cause>)
40080eab:	441c      	movi.n	a4, 20
40080ead:	0539      	s32i.n	a3, a5, 0
40080eaf:	0e1347        	beq	a3, a4, 40080ec1 <z_xtensa_backtrace_print+0x35>
40080eb2:	0138      	l32i.n	a3, a1, 0
40080eb4:	f47c      	movi.n	a4, -1
40080eb6:	014420        	slli	a4, a4, 30
40080eb9:	103340        	and	a3, a3, a4
40080ebc:	fd6c41        	l32r	a4, 4008046c <_init_end+0x6c> (3ffb044c <mask>)
40080ebf:	0439      	s32i.n	a3, a4, 0
40080ec1:	fd6da1        	l32r	a10, 40080478 <_init_end+0x78> (3ffb0144 <timeout_list+0x8>)
40080ec4:	130c      	movi.n	a3, 1
40080ec6:	01c1e5        	call8	40082ae4 <printk>
40080ec9:	01a8      	l32i.n	a10, a1, 0
40080ecb:	fff5a5        	call8	40080e24 <z_xtensa_cpu_process_stack_pc>
40080ece:	0abd      	mov.n	a11, a10
40080ed0:	11c8      	l32i.n	a12, a1, 4
40080ed2:	fd6aa1        	l32r	a10, 4008047c <_init_end+0x7c> (3ffb0153 <timeout_list+0x17>)
40080ed5:	01c0e5        	call8	40082ae4 <printk>
40080ed8:	fd6681        	l32r	a8, 40080470 <_init_end+0x70> (c0051ff0 <_rtc_bss_end+0x70051ff0>)
40080edb:	1148      	l32i.n	a4, a1, 4
40080edd:	fd6591        	l32r	a9, 40080474 <_init_end+0x74> (51fe0 <CONFIG_ESP_HEAP_MEM_POOL_REGION_1_SIZE+0x45fe0>)
40080ee0:	848a      	add.n	a8, a4, a8
40080ee2:	1a3987        	bltu	a9, a8, 40080f00 <z_xtensa_backtrace_print+0x74>
40080ee5:	344040        	extui	a4, a4, 0, 4
40080ee8:	44dc      	bnez.n	a4, 40080f00 <z_xtensa_backtrace_print+0x74>
40080eea:	01a8      	l32i.n	a10, a1, 0
40080eec:	043d      	mov.n	a3, a4
40080eee:	fff365        	call8	40080e24 <z_xtensa_cpu_process_stack_pc>
40080ef1:	ff6c25        	call8	400805b4 <esp_ptr_executable>
40080ef4:	8acc      	bnez.n	a10, 40080f00 <z_xtensa_backtrace_print+0x74>
40080ef6:	0548      	l32i.n	a4, a5, 0
40080ef8:	150c      	movi.n	a5, 1
40080efa:	ecc442        	addi	a4, a4, -20
40080efd:	933540        	movnez	a3, a5, a4
40080f00:	140c      	movi.n	a4, 1
40080f02:	000786        	j	40080f24 <z_xtensa_backtrace_print+0x98>
40080f05:	20a110        	or	a10, a1, a1
40080f08:	fff465        	call8	40080e50 <z_xtensa_backtrace_get_next_frame>
40080f0b:	303a40        	xor	a3, a10, a4
40080f0e:	01a8      	l32i.n	a10, a1, 0
40080f10:	220b      	addi.n	a2, a2, -1
40080f12:	fff125        	call8	40080e24 <z_xtensa_cpu_process_stack_pc>
40080f15:	0abd      	mov.n	a11, a10
40080f17:	11c8      	l32i.n	a12, a1, 4
40080f19:	fd58a1        	l32r	a10, 4008047c <_init_end+0x7c> (3ffb0153 <timeout_list+0x17>)
40080f1c:	743030        	extui	a3, a3, 0, 8
40080f1f:	01bc65        	call8	40082ae4 <printk>
40080f22:	828c      	beqz.n	a2, 40080f2e <z_xtensa_backtrace_print+0xa2>
40080f24:	2158      	l32i.n	a5, a1, 8
40080f26:	a5ac      	beqz.n	a5, 40080f54 <z_xtensa_backtrace_print+0xc8>
40080f28:	fd9316        	beqz	a3, 40080f05 <z_xtensa_backtrace_print+0x79>
40080f2b:	000046        	j	40080f30 <z_xtensa_backtrace_print+0xa4>
40080f2e:	a38c      	beqz.n	a3, 40080f3c <z_xtensa_backtrace_print+0xb0>
40080f30:	fd54a1        	l32r	a10, 40080480 <_init_end+0x80> (3ffb0162 <timeout_list+0x26>)
40080f33:	f47c      	movi.n	a4, -1
40080f35:	01bae5        	call8	40082ae4 <printk>
40080f38:	000306        	j	40080f48 <z_xtensa_backtrace_print+0xbc>
40080f3b:	00          	.byte 00
40080f3c:	2128      	l32i.n	a2, a1, 8
40080f3e:	428c      	beqz.n	a2, 40080f46 <z_xtensa_backtrace_print+0xba>
40080f40:	fd51a1        	l32r	a10, 40080484 <_init_end+0x84> (3ffb0170 <timeout_list+0x34>)
40080f43:	01ba25        	call8	40082ae4 <printk>
40080f46:	040c      	movi.n	a4, 0
40080f48:	fd50a1        	l32r	a10, 40080488 <_init_end+0x88> (3ffb017e <timeout_list+0x42>)
40080f4b:	01b9a5        	call8	40082ae4 <printk>
40080f4e:	000206        	j	40080f5a <z_xtensa_backtrace_print+0xce>
40080f51:	00          	.byte 00
40080f52:	00          	.byte 00
40080f53:	00          	.byte 00
40080f54:	fee316        	beqz	a3, 40080f46 <z_xtensa_backtrace_print+0xba>
40080f57:	fff546        	j	40080f30 <z_xtensa_backtrace_print+0xa4>
40080f5a:	042d      	mov.n	a2, a4
40080f5c:	f01d      	retw.n
	...

40080f60 <z_xtensa_dump_stack>:
40080f60:	004136        	entry	a1, 32
40080f63:	f01d      	retw.n
40080f65:	000000        	ill

40080f68 <z_sys_init_run_level>:
40080f68:	004136        	entry	a1, 32
40080f6b:	fd4881        	l32r	a8, 4008048c <_init_end+0x8c> (3f4009d4 <levels$0>)
40080f6e:	00a152        	movi	a5, 0x100
40080f71:	a03280        	addx4	a3, a2, a8
40080f74:	a02280        	addx4	a2, a2, a8
40080f77:	0338      	l32i.n	a3, a3, 0
40080f79:	1248      	l32i.n	a4, a2, 4
40080f7b:	ffa062        	movi	a6, 255
40080f7e:	000906        	j	40080fa6 <z_sys_init_run_level+0x3e>
40080f81:	1328      	l32i.n	a2, a3, 4
40080f83:	0388      	l32i.n	a8, a3, 0
40080f85:	02ad      	mov.n	a10, a2
40080f87:	0008e0        	callx8	a8
40080f8a:	629c      	beqz.n	a2, 40080fa4 <z_sys_init_run_level+0x3c>
40080f8c:	9a8c      	beqz.n	a10, 40080f99 <z_sys_init_run_level+0x31>
40080f8e:	3288      	l32i.n	a8, a2, 12
40080f90:	60a1a0        	abs	a10, a10
40080f93:	43aa60        	min	a10, a10, a6
40080f96:	0048a2        	s8i	a10, a8, 0
40080f99:	3288      	l32i.n	a8, a2, 12
40080f9b:	001822        	l16ui	a2, a8, 0
40080f9e:	202250        	or	a2, a2, a5
40080fa1:	005822        	s16i	a2, a8, 0
40080fa4:	338b      	addi.n	a3, a3, 8
40080fa6:	d73347        	bltu	a3, a4, 40080f81 <z_sys_init_run_level+0x19>
40080fa9:	f01d      	retw.n
	...

40080fac <k_sys_fatal_error_handler>:
40080fac:	004136        	entry	a1, 32
40080faf:	02ad      	mov.n	a10, a2
40080fb1:	00e5e5        	call8	40081e10 <arch_system_halt>

40080fb4 <z_fatal_error>:
40080fb4:	004136        	entry	a1, 32
40080fb7:	006350        	rsil	a5, 3
40080fba:	009fa5        	call8	400819b4 <z_impl_z_current_get>
40080fbd:	204aa0        	or	a4, a10, a10
40080fc0:	03bd      	mov.n	a11, a3
40080fc2:	02ad      	mov.n	a10, a2
40080fc4:	fffe65        	call8	40080fac <k_sys_fatal_error_handler>
40080fc7:	13e650        	wsr.ps	a5
40080fca:	002010        	rsync
40080fcd:	04ad      	mov.n	a10, a4
40080fcf:	00a965        	call8	40081a64 <z_impl_k_thread_abort>
40080fd2:	f01d      	retw.n

40080fd4 <bg_thread_main>:
40080fd4:	004136        	entry	a1, 32
40080fd7:	fd2e81        	l32r	a8, 40080490 <_init_end+0x90> (3ffb05cc <z_sys_post_kernel>)
40080fda:	190c      	movi.n	a9, 1
40080fdc:	2a0c      	movi.n	a10, 2
40080fde:	004892        	s8i	a9, a8, 0
40080fe1:	fff865        	call8	40080f68 <z_sys_init_run_level>
40080fe4:	00dee5        	call8	40081dd4 <boot_banner>
40080fe7:	3a0c      	movi.n	a10, 3
40080fe9:	fff7e5        	call8	40080f68 <z_sys_init_run_level>
40080fec:	002465        	call8	40081234 <z_init_static_threads>
40080fef:	4f2e65        	call8	400d02d4 <main>
40080ff2:	fd2891        	l32r	a9, 40080494 <_init_end+0x94> (3ffb03e0 <z_main_thread>)
40080ff5:	ea7c      	movi.n	a10, -2
40080ff7:	0c0982        	l8ui	a8, a9, 12
40080ffa:	1088a0        	and	a8, a8, a10
40080ffd:	0c4982        	s8i	a8, a9, 12
40081000:	f01d      	retw.n
	...

40081004 <z_early_memset>:
40081004:	004136        	entry	a1, 32
40081007:	04cd      	mov.n	a12, a4
40081009:	03bd      	mov.n	a11, a3
4008100b:	02ad      	mov.n	a10, a2
4008100d:	01b565        	call8	40082b64 <memset>
40081010:	f01d      	retw.n
	...

40081014 <z_bss_zero>:
40081014:	004136        	entry	a1, 32
40081017:	fd21a1        	l32r	a10, 4008049c <_init_end+0x9c> (3ffb0388 <z_idle_threads>)
4008101a:	fd1fc1        	l32r	a12, 40080498 <_init_end+0x98> (3ffb05d0 <__bss_end>)
4008101d:	0b0c      	movi.n	a11, 0
4008101f:	c0cca0        	sub	a12, a12, a10
40081022:	fffe25        	call8	40081004 <z_early_memset>
40081025:	f01d      	retw.n
	...

40081028 <z_init_cpu>:
40081028:	006136        	entry	a1, 48
4008102b:	fd1d41        	l32r	a4, 400804a0 <_init_end+0xa0> (3ffb0388 <z_idle_threads>)
4008102e:	a03220        	addx4	a3, a2, a2
40081031:	fcf581        	l32r	a8, 40080408 <_init_end+0x8> (3ffb0578 <_kernel>)
40081034:	903320        	addx2	a3, a3, a2
40081037:	b03340        	addx8	a3, a3, a4
4008103a:	fd1bb1        	l32r	a11, 400804a8 <_init_end+0xa8> (3ffe5a30 <z_idle_stacks>)
4008103d:	904220        	addx2	a4, a2, a2
40081040:	190c      	movi.n	a9, 1
40081042:	b04480        	addx8	a4, a4, a8
40081045:	0f0c      	movi.n	a15, 0
40081047:	118260        	slli	a8, a2, 10
4008104a:	2199      	s32i.n	a9, a1, 8
4008104c:	fd16d1        	l32r	a13, 400804a4 <_init_end+0xa4> (400812ac <idle>)
4008104f:	f90c      	movi.n	a9, 15
40081051:	1199      	s32i.n	a9, a1, 4
40081053:	bb8a      	add.n	a11, a11, a8
40081055:	03ad      	mov.n	a10, a3
40081057:	31f9      	s32i.n	a15, a1, 12
40081059:	01f9      	s32i.n	a15, a1, 0
4008105b:	20e440        	or	a14, a4, a4
4008105e:	00a4c2        	movi	a12, 0x400
40081061:	0017e5        	call8	400811e0 <z_setup_new_thread>
40081064:	0d0382        	l8ui	a8, a3, 13
40081067:	b97c      	movi.n	a9, -5
40081069:	108890        	and	a8, a8, a9
4008106c:	0d4382        	s8i	a8, a3, 13
4008106f:	3439      	s32i.n	a3, a4, 12
40081071:	144422        	s8i	a2, a4, 20
40081074:	fd0e31        	l32r	a3, 400804ac <_init_end+0xac> (3ffe5230 <z_interrupt_stacks>)
40081077:	221b      	addi.n	a2, a2, 1
40081079:	112250        	slli	a2, a2, 11
4008107c:	223a      	add.n	a2, a2, a3
4008107e:	1429      	s32i.n	a2, a4, 4
40081080:	f01d      	retw.n
	...

40081084 <z_cstart>:
40081084:	012136        	entry	a1, 144
40081087:	fce031        	l32r	a3, 40080408 <_init_end+0x8> (3ffb0578 <_kernel>)
4008108a:	020c      	movi.n	a2, 0
4008108c:	0329      	s32i.n	a2, a3, 0
4008108e:	13f530        	wsr.misc1	a3
40081091:	01a142        	movi	a4, 0x101
40081094:	0e5142        	s16i	a4, a1, 28
40081097:	10c142        	addi	a4, a1, 16
4008109a:	2349      	s32i.n	a4, a3, 8
4008109c:	176122        	s32i	a2, a1, 92
4008109f:	00d4a5        	call8	40081de8 <z_device_state_init>
400810a2:	02ad      	mov.n	a10, a2
400810a4:	ffec25        	call8	40080f68 <z_sys_init_run_level>
400810a7:	1a0c      	movi.n	a10, 1
400810a9:	ffebe5        	call8	40080f68 <z_sys_init_run_level>
400810ac:	007d25        	call8	40081880 <z_sched_init>
400810af:	fcf941        	l32r	a4, 40080494 <_init_end+0x94> (3ffb03e0 <z_main_thread>)
400810b2:	fd0151        	l32r	a5, 400804b8 <_init_end+0xb8> (3ffb0183 <timeout_list+0x47>)
400810b5:	6349      	s32i.n	a4, a3, 24
400810b7:	fcfed1        	l32r	a13, 400804b0 <_init_end+0xb0> (40080fd4 <bg_thread_main>)
400810ba:	fcfeb1        	l32r	a11, 400804b4 <_init_end+0xb4> (3ffe5e30 <z_main_stack>)
400810bd:	3159      	s32i.n	a5, a1, 12
400810bf:	150c      	movi.n	a5, 1
400810c1:	11c550        	slli	a12, a5, 11
400810c4:	02fd      	mov.n	a15, a2
400810c6:	02ed      	mov.n	a14, a2
400810c8:	2159      	s32i.n	a5, a1, 8
400810ca:	1129      	s32i.n	a2, a1, 4
400810cc:	0129      	s32i.n	a2, a1, 0
400810ce:	20a440        	or	a10, a4, a4
400810d1:	0010e5        	call8	400811e0 <z_setup_new_thread>
400810d4:	0d0482        	l8ui	a8, a4, 13
400810d7:	b57c      	movi.n	a5, -5
400810d9:	108850        	and	a8, a8, a5
400810dc:	20a440        	or	a10, a4, a4
400810df:	0d4482        	s8i	a8, a4, 13
400810e2:	005ba5        	call8	4008169c <z_ready_thread>
400810e5:	02ad      	mov.n	a10, a2
400810e7:	fff425        	call8	40081028 <z_init_cpu>
400810ea:	006350        	rsil	a5, 3
400810ed:	2348      	l32i.n	a4, a3, 8
400810ef:	527c      	movi.n	a2, -11
400810f1:	116422        	s32i	a2, a4, 68
400810f4:	006320        	rsil	a2, 3
400810f7:	007465        	call8	4008183c <z_swap_next_thread>
400810fa:	0a2d      	mov.n	a2, a10
400810fc:	0d14a7        	beq	a4, a10, 4008110d <z_cstart+0x89>
400810ff:	23a9      	s32i.n	a10, a3, 8
40081101:	0024a5        	call8	4008134c <z_reset_time_slice>
40081104:	1222a2        	l32i	a10, a2, 72
40081107:	48c4b2        	addi	a11, a4, 72
4008110a:	ff7ea5        	call8	400808f4 <xtensa_switch>
4008110d:	13e650        	wsr.ps	a5
40081110:	002010        	rsync
	...

40081114 <k_heap_init>:
40081114:	004136        	entry	a1, 32
40081117:	0cc282        	addi	a8, a2, 12
4008111a:	20a220        	or	a10, a2, a2
4008111d:	036282        	s32i	a8, a2, 12
40081120:	4289      	s32i.n	a8, a2, 16
40081122:	04cd      	mov.n	a12, a4
40081124:	03bd      	mov.n	a11, a3
40081126:	4f5c25        	call8	400d06e8 <sys_heap_init>
40081129:	f01d      	retw.n
	...

4008112c <statics_init>:
4008112c:	004136        	entry	a1, 32
4008112f:	fce321        	l32r	a2, 400804bc <_init_end+0xbc> (3ffb0370 <_internal_heap_1>)
40081132:	000386        	j	40081144 <statics_init+0x18>
40081135:	0222c2        	l32i	a12, a2, 8
40081138:	0122b2        	l32i	a11, a2, 4
4008113b:	20a220        	or	a10, a2, a2
4008113e:	fffd65        	call8	40081114 <k_heap_init>
40081141:	14c222        	addi	a2, a2, 20
40081144:	fcdf31        	l32r	a3, 400804c0 <_init_end+0xc0> (3ffb0384 <__log_backends_end>)
40081147:	ea3237        	bltu	a2, a3, 40081135 <statics_init+0x9>
4008114a:	020c      	movi.n	a2, 0
4008114c:	f01d      	retw.n
	...

40081150 <k_heap_aligned_alloc>:
40081150:	006136        	entry	a1, 48
40081153:	20b770        	or	a11, a7, a7
40081156:	20a660        	or	a10, a6, a6
40081159:	00c125        	call8	40081d6c <sys_clock_timeout_end_calc>
4008115c:	14c282        	addi	a8, a2, 20
4008115f:	205aa0        	or	a5, a10, a10
40081162:	0b6d      	mov.n	a6, a11
40081164:	0189      	s32i.n	a8, a1, 0
40081166:	006380        	rsil	a8, 3
40081169:	170c      	movi.n	a7, 1
4008116b:	0009c6        	j	40081196 <k_heap_aligned_alloc+0x46>
4008116e:	00          	.byte 00
4008116f:	00          	.byte 00
40081170:	00          	.byte 00
40081171:	c0e5a0        	sub	a14, a5, a10
40081174:	07ad      	mov.n	a10, a7
40081176:	0235e7        	bltu	a5, a14, 4008117c <k_heap_aligned_alloc+0x2c>
40081179:	20a990        	or	a10, a9, a9
4008117c:	c0f6b0        	sub	a15, a6, a11
4008117f:	c0ffa0        	sub	a15, a15, a10
40081182:	041fe6        	bgei	a15, 1, 4008118a <k_heap_aligned_alloc+0x3a>
40081185:	024f56        	bnez	a15, 400811ad <k_heap_aligned_alloc+0x5d>
40081188:	1eac      	beqz.n	a14, 400811ad <k_heap_aligned_alloc+0x5d>
4008118a:	01a8      	l32i.n	a10, a1, 0
4008118c:	c2cb      	addi.n	a12, a2, 12
4008118e:	08bd      	mov.n	a11, a8
40081190:	0051e5        	call8	400816b0 <z_pend_curr>
40081193:	006380        	rsil	a8, 3
40081196:	2189      	s32i.n	a8, a1, 8
40081198:	04cd      	mov.n	a12, a4
4008119a:	03bd      	mov.n	a11, a3
4008119c:	02ad      	mov.n	a10, a2
4008119e:	4f4865        	call8	400d0624 <sys_heap_aligned_alloc>
400811a1:	11a9      	s32i.n	a10, a1, 4
400811a3:	00b965        	call8	40081d38 <sys_clock_tick_get>
400811a6:	1198      	l32i.n	a9, a1, 4
400811a8:	2188      	l32i.n	a8, a1, 8
400811aa:	fc3916        	beqz	a9, 40081171 <k_heap_aligned_alloc+0x21>
400811ad:	13e680        	wsr.ps	a8
400811b0:	002010        	rsync
400811b3:	092d      	mov.n	a2, a9
400811b5:	f01d      	retw.n
	...

400811b8 <k_heap_free>:
400811b8:	004136        	entry	a1, 32
400811bb:	20b330        	or	a11, a3, a3
400811be:	006340        	rsil	a4, 3
400811c1:	02ad      	mov.n	a10, a2
400811c3:	4f3e65        	call8	400d05a8 <sys_heap_free>
400811c6:	a2cb      	addi.n	a10, a2, 12
400811c8:	006925        	call8	4008185c <z_unpend_all>
400811cb:	9a8c      	beqz.n	a10, 400811d8 <k_heap_free+0x20>
400811cd:	04bd      	mov.n	a11, a4
400811cf:	14c2a2        	addi	a10, a2, 20
400811d2:	005465        	call8	40081718 <z_reschedule>
400811d5:	000146        	j	400811de <k_heap_free+0x26>
400811d8:	13e640        	wsr.ps	a4
400811db:	002010        	rsync
400811de:	f01d      	retw.n

400811e0 <z_setup_new_thread>:
400811e0:	006136        	entry	a1, 48
400811e3:	38c282        	addi	a8, a2, 56
400811e6:	e289      	s32i.n	a8, a2, 56
400811e8:	f289      	s32i.n	a8, a2, 60
400811ea:	e188      	l32i.n	a8, a1, 56
400811ec:	44fb      	addi.n	a4, a4, 15
400811ee:	0c4282        	s8i	a8, a2, 12
400811f1:	480c      	movi.n	a8, 4
400811f3:	0d4282        	s8i	a8, a2, 13
400811f6:	d188      	l32i.n	a8, a1, 52
400811f8:	07fd      	mov.n	a15, a7
400811fa:	0e4282        	s8i	a8, a2, 14
400811fd:	087c      	movi.n	a8, -16
400811ff:	070c      	movi.n	a7, 0
40081201:	104480        	and	a4, a4, a8
40081204:	c188      	l32i.n	a8, a1, 48
40081206:	2279      	s32i.n	a7, a2, 8
40081208:	0f4272        	s8i	a7, a2, 15
4008120b:	6279      	s32i.n	a7, a2, 24
4008120d:	7279      	s32i.n	a7, a2, 28
4008120f:	434a      	add.n	a4, a3, a4
40081211:	02ad      	mov.n	a10, a2
40081213:	03bd      	mov.n	a11, a3
40081215:	0189      	s32i.n	a8, a1, 0
40081217:	06ed      	mov.n	a14, a6
40081219:	05dd      	mov.n	a13, a5
4008121b:	04cd      	mov.n	a12, a4
4008121d:	ff8725        	call8	40080a90 <arch_new_thread>
40081220:	d279      	s32i.n	a7, a2, 52
40081222:	fc7971        	l32r	a7, 40080408 <_init_end+0x8> (3ffb0578 <_kernel>)
40081225:	2778      	l32i.n	a7, a7, 8
40081227:	132772        	l32i	a7, a7, 76
4008122a:	136272        	s32i	a7, a2, 76
4008122d:	042d      	mov.n	a2, a4
4008122f:	f01d      	retw.n
40081231:	000000        	ill

40081234 <z_init_static_threads>:
40081234:	006136        	entry	a1, 48
40081237:	fca321        	l32r	a2, 400804c4 <_init_end+0xc4> (3ffb0370 <_internal_heap_1>)
4008123a:	fca231        	l32r	a3, 400804c4 <_init_end+0xc4> (3ffb0370 <_internal_heap_1>)
4008123d:	024d      	mov.n	a4, a2
4008123f:	0009c6        	j	4008126a <z_init_static_threads+0x36>
40081242:	0b2282        	l32i	a8, a2, 44
40081245:	036182        	s32i	a8, a1, 12
40081248:	8288      	l32i.n	a8, a2, 32
4008124a:	2189      	s32i.n	a8, a1, 8
4008124c:	7288      	l32i.n	a8, a2, 28
4008124e:	1189      	s32i.n	a8, a1, 4
40081250:	6288      	l32i.n	a8, a2, 24
40081252:	0189      	s32i.n	a8, a1, 0
40081254:	52f8      	l32i.n	a15, a2, 20
40081256:	42e8      	l32i.n	a14, a2, 16
40081258:	32d8      	l32i.n	a13, a2, 12
4008125a:	22c8      	l32i.n	a12, a2, 8
4008125c:	12b8      	l32i.n	a11, a2, 4
4008125e:	02a8      	l32i.n	a10, a2, 0
40081260:	fff7e5        	call8	400811e0 <z_setup_new_thread>
40081263:	0288      	l32i.n	a8, a2, 0
40081265:	d829      	s32i.n	a2, a8, 52
40081267:	30c222        	addi	a2, a2, 48
4008126a:	d43237        	bltu	a2, a3, 40081242 <z_init_static_threads+0xe>
4008126d:	042d      	mov.n	a2, a4
4008126f:	0058a5        	call8	400817f8 <k_sched_lock>
40081272:	040c      	movi.n	a4, 0
40081274:	000b06        	j	400812a4 <z_init_static_threads+0x70>
40081277:	00          	.byte 00
40081278:	0922d2        	l32i	a13, a2, 36
4008127b:	220d26        	beqi	a13, -1, 400812a1 <z_init_static_threads+0x6d>
4008127e:	0aa082        	movi	a8, 10
40081281:	53dd40        	max	a13, a13, a4
40081284:	82cd80        	mull	a12, a13, a8
40081287:	b2dd80        	mulsh	a13, a13, a8
4008128a:	0022a2        	l32i	a10, a2, 0
4008128d:	208cd0        	or	a8, a12, a13
40081290:	48cc      	bnez.n	a8, 40081298 <z_init_static_threads+0x64>
40081292:	004b25        	call8	40081744 <z_sched_start>
40081295:	000206        	j	400812a1 <z_init_static_threads+0x6d>
40081298:	fc8cb1        	l32r	a11, 400804c8 <_init_end+0xc8> (40081514 <z_thread_timeout>)
4008129b:	18caa2        	addi	a10, a10, 24
4008129e:	0087a5        	call8	40081b18 <z_add_timeout>
400812a1:	30c222        	addi	a2, a2, 48
400812a4:	d03237        	bltu	a2, a3, 40081278 <z_init_static_threads+0x44>
400812a7:	0056e5        	call8	40081814 <k_sched_unlock>
400812aa:	f01d      	retw.n

400812ac <idle>:
400812ac:	004136        	entry	a1, 32
400812af:	006380        	rsil	a8, 3
400812b2:	ff5325        	call8	400807e4 <arch_cpu_idle>
400812b5:	fffd86        	j	400812af <idle+0x3>

400812b8 <z_impl_k_sem_give>:
400812b8:	004136        	entry	a1, 32
400812bb:	006330        	rsil	a3, 3
400812be:	20a220        	or	a10, a2, a2
400812c1:	0040e5        	call8	400816d0 <z_unpend_first_thread>
400812c4:	00da16        	beqz	a10, 400812d5 <z_impl_k_sem_give+0x1d>
400812c7:	00a022        	movi	a2, 0
400812ca:	116a22        	s32i	a2, a10, 68
400812cd:	003ce5        	call8	4008169c <z_ready_thread>
400812d0:	000506        	j	400812e8 <z_impl_k_sem_give+0x30>
400812d3:	00          	.byte 00
400812d4:	00          	.byte 00
400812d5:	0222b2        	l32i	a11, a2, 8
400812d8:	032292        	l32i	a9, a2, 12
400812db:	01a082        	movi	a8, 1
400812de:	c099b0        	sub	a9, a9, a11
400812e1:	838a90        	moveqz	a8, a10, a9
400812e4:	88ba      	add.n	a8, a8, a11
400812e6:	2289      	s32i.n	a8, a2, 8
400812e8:	fc79a1        	l32r	a10, 400804cc <_init_end+0xcc> (3ffb05cd <sched_spinlock>)
400812eb:	03bd      	mov.n	a11, a3
400812ed:	0042a5        	call8	40081718 <z_reschedule>
400812f0:	f01d      	retw.n
	...

400812f4 <z_impl_k_sem_take>:
400812f4:	004136        	entry	a1, 32
400812f7:	02cd      	mov.n	a12, a2
400812f9:	04ed      	mov.n	a14, a4
400812fb:	05fd      	mov.n	a15, a5
400812fd:	0063b0        	rsil	a11, 3
40081300:	2288      	l32i.n	a8, a2, 8
40081302:	e88c      	beqz.n	a8, 40081314 <z_impl_k_sem_take+0x20>
40081304:	880b      	addi.n	a8, a8, -1
40081306:	2289      	s32i.n	a8, a2, 8
40081308:	13e6b0        	wsr.ps	a11
4008130b:	002010        	rsync
4008130e:	0a0c      	movi.n	a10, 0
40081310:	000586        	j	4008132a <z_impl_k_sem_take+0x36>
40081313:	00          	.byte 00
40081314:	208450        	or	a8, a4, a5
40081317:	98cc      	bnez.n	a8, 40081324 <z_impl_k_sem_take+0x30>
40081319:	13e6b0        	wsr.ps	a11
4008131c:	002010        	rsync
4008131f:	0a7c      	movi.n	a10, -16
40081321:	000146        	j	4008132a <z_impl_k_sem_take+0x36>
40081324:	fc6aa1        	l32r	a10, 400804cc <_init_end+0xcc> (3ffb05cd <sched_spinlock>)
40081327:	0038a5        	call8	400816b0 <z_pend_curr>
4008132a:	0a2d      	mov.n	a2, a10
4008132c:	f01d      	retw.n
	...

40081330 <unpend_thread_no_timeout>:
40081330:	004136        	entry	a1, 32
40081333:	02ad      	mov.n	a10, a2
40081335:	00ae65        	call8	40081e1c <sys_dlist_remove>
40081338:	0d0282        	l8ui	a8, a2, 13
4008133b:	d97c      	movi.n	a9, -3
4008133d:	108890        	and	a8, a8, a9
40081340:	0d4282        	s8i	a8, a2, 13
40081343:	080c      	movi.n	a8, 0
40081345:	2289      	s32i.n	a8, a2, 8
40081347:	f01d      	retw.n
40081349:	000000        	ill

4008134c <z_reset_time_slice>:
4008134c:	004136        	entry	a1, 32
4008134f:	fc6031        	l32r	a3, 400804d0 <_init_end+0xd0> (3ffb05a0 <slice_ticks>)
40081352:	002322        	l32i	a2, a3, 0
40081355:	010216        	beqz	a2, 40081369 <z_reset_time_slice+0x1d>
40081358:	00ca65        	call8	40082000 <sys_clock_elapsed>
4008135b:	a2aa      	add.n	a10, a2, a10
4008135d:	fc2a21        	l32r	a2, 40080408 <_init_end+0x8> (3ffb0578 <_kernel>)
40081360:	0b0c      	movi.n	a11, 0
40081362:	42a9      	s32i.n	a10, a2, 16
40081364:	03a8      	l32i.n	a10, a3, 0
40081366:	008e25        	call8	40081c48 <z_set_timeout_expiry>
40081369:	f01d      	retw.n
	...

4008136c <z_swap_irqlock>:
4008136c:	004136        	entry	a1, 32
4008136f:	fc2631        	l32r	a3, 40080408 <_init_end+0x8> (3ffb0578 <_kernel>)
40081372:	f5af42        	movi	a4, -11
40081375:	022352        	l32i	a5, a3, 8
40081378:	116542        	s32i	a4, a5, 68
4008137b:	006340        	rsil	a4, 3
4008137e:	6348      	l32i.n	a4, a3, 24
40081380:	101547        	beq	a5, a4, 40081394 <z_swap_irqlock+0x28>
40081383:	04ad      	mov.n	a10, a4
40081385:	026342        	s32i	a4, a3, 8
40081388:	fffc25        	call8	4008134c <z_reset_time_slice>
4008138b:	1224a2        	l32i	a10, a4, 72
4008138e:	48c5b2        	addi	a11, a5, 72
40081391:	ff5625        	call8	400808f4 <xtensa_switch>
40081394:	13e620        	wsr.ps	a2
40081397:	002010        	rsync
4008139a:	2338      	l32i.n	a3, a3, 8
4008139c:	112322        	l32i	a2, a3, 68
4008139f:	f01d      	retw.n
400813a1:	000000        	ill

400813a4 <z_swap>:
400813a4:	004136        	entry	a1, 32
400813a7:	fc1841        	l32r	a4, 40080408 <_init_end+0x8> (3ffb0578 <_kernel>)
400813aa:	f5af82        	movi	a8, -11
400813ad:	022452        	l32i	a5, a4, 8
400813b0:	116582        	s32i	a8, a5, 68
400813b3:	fc4881        	l32r	a8, 400804d4 <_init_end+0xd4> (3ffb05cd <sched_spinlock>)
400813b6:	021827        	beq	a8, a2, 400813bc <z_swap+0x18>
400813b9:	006320        	rsil	a2, 3
400813bc:	6428      	l32i.n	a2, a4, 24
400813be:	0f1527        	beq	a5, a2, 400813d1 <z_swap+0x2d>
400813c1:	02ad      	mov.n	a10, a2
400813c3:	2429      	s32i.n	a2, a4, 8
400813c5:	fff865        	call8	4008134c <z_reset_time_slice>
400813c8:	1222a2        	l32i	a10, a2, 72
400813cb:	48c5b2        	addi	a11, a5, 72
400813ce:	ff5265        	call8	400808f4 <xtensa_switch>
400813d1:	13e630        	wsr.ps	a3
400813d4:	002010        	rsync
400813d7:	2428      	l32i.n	a2, a4, 8
400813d9:	112222        	l32i	a2, a2, 68
400813dc:	f01d      	retw.n
	...

400813e0 <update_cache>:
400813e0:	004136        	entry	a1, 32
400813e3:	fc0941        	l32r	a4, 40080408 <_init_end+0x8> (3ffb0578 <_kernel>)
400813e6:	fc3ca1        	l32r	a10, 400804d8 <_init_end+0xd8> (3ffb0594 <_kernel+0x1c>)
400813e9:	072432        	l32i	a3, a4, 28
400813ec:	01a082        	movi	a8, 1
400813ef:	c0a3a0        	sub	a10, a3, a10
400813f2:	00a092        	movi	a9, 0
400813f5:	8398a0        	moveqz	a9, a8, a10
400813f8:	74a090        	extui	a10, a9, 0, 8
400813fb:	004956        	bnez	a9, 40081403 <update_cache+0x23>
400813fe:	938a30        	movnez	a8, a10, a3
40081401:	088c      	beqz.n	a8, 40081405 <update_cache+0x25>
40081403:	3438      	l32i.n	a3, a4, 12
40081405:	2488      	l32i.n	a8, a4, 8
40081407:	011256        	bnez	a2, 4008141c <update_cache+0x3c>
4008140a:	0d0892        	l8ui	a9, a8, 13
4008140d:	449090        	extui	a9, a9, 0, 5
40081410:	008956        	bnez	a9, 4008141c <update_cache+0x3c>
40081413:	071892        	l16ui	a9, a8, 14
40081416:	7fa0a2        	movi	a10, 127
40081419:	093a97        	bltu	a10, a9, 40081426 <update_cache+0x46>
4008141c:	041837        	beq	a8, a3, 40081424 <update_cache+0x44>
4008141f:	03ad      	mov.n	a10, a3
40081421:	fff2a5        	call8	4008134c <z_reset_time_slice>
40081424:	038d      	mov.n	a8, a3
40081426:	6489      	s32i.n	a8, a4, 24
40081428:	f01d      	retw.n
	...

4008142c <move_thread_to_end_of_prio_q>:
4008142c:	004136        	entry	a1, 32
4008142f:	0d0282        	l8ui	a8, a2, 13
40081432:	239800        	sext	a9, a8, 7
40081435:	00a9d6        	bgez	a9, 40081443 <move_thread_to_end_of_prio_q+0x17>
40081438:	648080        	extui	a8, a8, 0, 7
4008143b:	0d4282        	s8i	a8, a2, 13
4008143e:	02ad      	mov.n	a10, a2
40081440:	009da5        	call8	40081e1c <sys_dlist_remove>
40081443:	0d0282        	l8ui	a8, a2, 13
40081446:	80af92        	movi	a9, -128
40081449:	208890        	or	a8, a8, a9
4008144c:	fbef91        	l32r	a9, 40080408 <_init_end+0x8> (3ffb0578 <_kernel>)
4008144f:	0d4282        	s8i	a8, a2, 13
40081452:	7988      	l32i.n	a8, a9, 28
40081454:	fc21d1        	l32r	a13, 400804d8 <_init_end+0xd8> (3ffb0594 <_kernel+0x1c>)
40081457:	0198d7        	bne	a8, a13, 4008145c <move_thread_to_end_of_prio_q+0x30>
4008145a:	080c      	movi.n	a8, 0
4008145c:	89c8      	l32i.n	a12, a9, 32
4008145e:	000906        	j	40081486 <move_thread_to_end_of_prio_q+0x5a>
40081461:	0e02b2        	l8ui	a11, a2, 14
40081464:	0e08a2        	l8ui	a10, a8, 14
40081467:	23bb00        	sext	a11, a11, 7
4008146a:	23aa00        	sext	a10, a10, 7
4008146d:	0f1ba7        	beq	a11, a10, 40081480 <move_thread_to_end_of_prio_q+0x54>
40081470:	0caba7        	bge	a11, a10, 40081480 <move_thread_to_end_of_prio_q+0x54>
40081473:	18a8      	l32i.n	a10, a8, 4
40081475:	0289      	s32i.n	a8, a2, 0
40081477:	12a9      	s32i.n	a10, a2, 4
40081479:	0a29      	s32i.n	a2, a10, 0
4008147b:	1829      	s32i.n	a2, a8, 4
4008147d:	000486        	j	40081493 <move_thread_to_end_of_prio_q+0x67>
40081480:	051c87        	beq	a12, a8, 40081489 <move_thread_to_end_of_prio_q+0x5d>
40081483:	002882        	l32i	a8, a8, 0
40081486:	fd7856        	bnez	a8, 40081461 <move_thread_to_end_of_prio_q+0x35>
40081489:	0062d2        	s32i	a13, a2, 0
4008148c:	0162c2        	s32i	a12, a2, 4
4008148f:	0c29      	s32i.n	a2, a12, 0
40081491:	8929      	s32i.n	a2, a9, 32
40081493:	2988      	l32i.n	a8, a9, 8
40081495:	1a0c      	movi.n	a10, 1
40081497:	c02820        	sub	a2, a8, a2
4008149a:	080c      	movi.n	a8, 0
4008149c:	93a820        	movnez	a10, a8, a2
4008149f:	fff425        	call8	400813e0 <update_cache>
400814a2:	f01d      	retw.n

400814a4 <ready_thread>:
400814a4:	004136        	entry	a1, 32
400814a7:	0d0292        	l8ui	a9, a2, 13
400814aa:	238900        	sext	a8, a9, 7
400814ad:	05f896        	bltz	a8, 40081510 <ready_thread+0x6c>
400814b0:	448090        	extui	a8, a9, 0, 5
400814b3:	059856        	bnez	a8, 40081510 <ready_thread+0x6c>
400814b6:	6288      	l32i.n	a8, a2, 24
400814b8:	054856        	bnez	a8, 40081510 <ready_thread+0x6c>
400814bb:	80afa2        	movi	a10, -128
400814be:	2099a0        	or	a9, a9, a10
400814c1:	fbd1b1        	l32r	a11, 40080408 <_init_end+0x8> (3ffb0578 <_kernel>)
400814c4:	0d4292        	s8i	a9, a2, 13
400814c7:	7b98      	l32i.n	a9, a11, 28
400814c9:	fc03d1        	l32r	a13, 400804d8 <_init_end+0xd8> (3ffb0594 <_kernel+0x1c>)
400814cc:	8bc8      	l32i.n	a12, a11, 32
400814ce:	c0a9d0        	sub	a10, a9, a13
400814d1:	9389a0        	movnez	a8, a9, a10
400814d4:	000986        	j	400814fe <ready_thread+0x5a>
400814d7:	0e02a2        	l8ui	a10, a2, 14
400814da:	0e0892        	l8ui	a9, a8, 14
400814dd:	23aa00        	sext	a10, a10, 7
400814e0:	239900        	sext	a9, a9, 7
400814e3:	111a97        	beq	a10, a9, 400814f8 <ready_thread+0x54>
400814e6:	0eaa97        	bge	a10, a9, 400814f8 <ready_thread+0x54>
400814e9:	1898      	l32i.n	a9, a8, 4
400814eb:	0289      	s32i.n	a8, a2, 0
400814ed:	1299      	s32i.n	a9, a2, 4
400814ef:	0929      	s32i.n	a2, a9, 0
400814f1:	1829      	s32i.n	a2, a8, 4
400814f3:	000506        	j	4008150b <ready_thread+0x67>
400814f6:	00          	.byte 00
400814f7:	00          	.byte 00
400814f8:	0518c7        	beq	a8, a12, 40081501 <ready_thread+0x5d>
400814fb:	002882        	l32i	a8, a8, 0
400814fe:	fd5856        	bnez	a8, 400814d7 <ready_thread+0x33>
40081501:	0062d2        	s32i	a13, a2, 0
40081504:	0162c2        	s32i	a12, a2, 4
40081507:	0c29      	s32i.n	a2, a12, 0
40081509:	8b29      	s32i.n	a2, a11, 32
4008150b:	0a0c      	movi.n	a10, 0
4008150d:	ffed25        	call8	400813e0 <update_cache>
40081510:	f01d      	retw.n
	...

40081514 <z_thread_timeout>:
40081514:	004136        	entry	a1, 32
40081517:	006330        	rsil	a3, 3
4008151a:	e8c222        	addi	a2, a2, -24
4008151d:	0d0282        	l8ui	a8, a2, 13
40081520:	28a092        	movi	a9, 40
40081523:	198987        	bany	a9, a8, 40081540 <z_thread_timeout+0x2c>
40081526:	022282        	l32i	a8, a2, 8
40081529:	388c      	beqz.n	a8, 40081530 <z_thread_timeout+0x1c>
4008152b:	02ad      	mov.n	a10, a2
4008152d:	ffe025        	call8	40081330 <unpend_thread_no_timeout>
40081530:	0d0282        	l8ui	a8, a2, 13
40081533:	b96c      	movi.n	a9, -21
40081535:	108890        	and	a8, a8, a9
40081538:	0d4282        	s8i	a8, a2, 13
4008153b:	02ad      	mov.n	a10, a2
4008153d:	fff665        	call8	400814a4 <ready_thread>
40081540:	13e630        	wsr.ps	a3
40081543:	002010        	rsync
40081546:	f01d      	retw.n

40081548 <unready_thread>:
40081548:	004136        	entry	a1, 32
4008154b:	0d0282        	l8ui	a8, a2, 13
4008154e:	239800        	sext	a9, a8, 7
40081551:	00b9d6        	bgez	a9, 40081560 <unready_thread+0x18>
40081554:	648080        	extui	a8, a8, 0, 7
40081557:	0d4282        	s8i	a8, a2, 13
4008155a:	20a220        	or	a10, a2, a2
4008155d:	008be5        	call8	40081e1c <sys_dlist_remove>
40081560:	fbaa81        	l32r	a8, 40080408 <_init_end+0x8> (3ffb0578 <_kernel>)
40081563:	01a0a2        	movi	a10, 1
40081566:	2888      	l32i.n	a8, a8, 8
40081568:	c02820        	sub	a2, a8, a2
4008156b:	00a082        	movi	a8, 0
4008156e:	93a820        	movnez	a10, a8, a2
40081571:	ffe6e5        	call8	400813e0 <update_cache>
40081574:	f01d      	retw.n
	...

40081578 <add_to_waitq_locked>:
40081578:	004136        	entry	a1, 32
4008157b:	02ad      	mov.n	a10, a2
4008157d:	fffca5        	call8	40081548 <unready_thread>
40081580:	0d0282        	l8ui	a8, a2, 13
40081583:	290c      	movi.n	a9, 2
40081585:	208890        	or	a8, a8, a9
40081588:	0d4282        	s8i	a8, a2, 13
4008158b:	f3bc      	beqz.n	a3, 400815ce <add_to_waitq_locked+0x56>
4008158d:	2239      	s32i.n	a3, a2, 8
4008158f:	0388      	l32i.n	a8, a3, 0
40081591:	2c9387        	bne	a3, a8, 400815c1 <add_to_waitq_locked+0x49>
40081594:	000b06        	j	400815c4 <add_to_waitq_locked+0x4c>
40081597:	00          	.byte 00
40081598:	0e02a2        	l8ui	a10, a2, 14
4008159b:	0e0892        	l8ui	a9, a8, 14
4008159e:	23aa00        	sext	a10, a10, 7
400815a1:	239900        	sext	a9, a9, 7
400815a4:	121a97        	beq	a10, a9, 400815ba <add_to_waitq_locked+0x42>
400815a7:	0faa97        	bge	a10, a9, 400815ba <add_to_waitq_locked+0x42>
400815aa:	1838      	l32i.n	a3, a8, 4
400815ac:	0289      	s32i.n	a8, a2, 0
400815ae:	1239      	s32i.n	a3, a2, 4
400815b0:	0329      	s32i.n	a2, a3, 0
400815b2:	1829      	s32i.n	a2, a8, 4
400815b4:	000586        	j	400815ce <add_to_waitq_locked+0x56>
400815b7:	00          	.byte 00
400815b8:	00          	.byte 00
400815b9:	00          	.byte 00
400815ba:	1398      	l32i.n	a9, a3, 4
400815bc:	041897        	beq	a8, a9, 400815c4 <add_to_waitq_locked+0x4c>
400815bf:	0888      	l32i.n	a8, a8, 0
400815c1:	fd3856        	bnez	a8, 40081598 <add_to_waitq_locked+0x20>
400815c4:	1388      	l32i.n	a8, a3, 4
400815c6:	0239      	s32i.n	a3, a2, 0
400815c8:	1289      	s32i.n	a8, a2, 4
400815ca:	0829      	s32i.n	a2, a8, 0
400815cc:	1329      	s32i.n	a2, a3, 4
400815ce:	f01d      	retw.n

400815d0 <pend>:
400815d0:	004136        	entry	a1, 32
400815d3:	20b330        	or	a11, a3, a3
400815d6:	006360        	rsil	a6, 3
400815d9:	20a220        	or	a10, a2, a2
400815dc:	fff9a5        	call8	40081578 <add_to_waitq_locked>
400815df:	13e660        	wsr.ps	a6
400815e2:	002010        	rsync
400815e5:	020466        	bnei	a4, -1, 400815eb <pend+0x1b>
400815e8:	0c0526        	beqi	a5, -1, 400815f8 <pend+0x28>
400815eb:	fbb7b1        	l32r	a11, 400804c8 <_init_end+0xc8> (40081514 <z_thread_timeout>)
400815ee:	04cd      	mov.n	a12, a4
400815f0:	05dd      	mov.n	a13, a5
400815f2:	18c2a2        	addi	a10, a2, 24
400815f5:	005225        	call8	40081b18 <z_add_timeout>
400815f8:	f01d      	retw.n
	...

400815fc <k_sched_time_slice_set>:
400815fc:	004136        	entry	a1, 32
400815ff:	006340        	rsil	a4, 3
40081602:	a08220        	addx4	a8, a2, a2
40081605:	888a      	add.n	a8, a8, a8
40081607:	0512a6        	blti	a2, 1, 40081610 <k_sched_time_slice_set+0x14>
4008160a:	02a022        	movi	a2, 2
4008160d:	538820        	max	a8, a8, a2
40081610:	fb7e21        	l32r	a2, 40080408 <_init_end+0x8> (3ffb0578 <_kernel>)
40081613:	00a092        	movi	a9, 0
40081616:	046292        	s32i	a9, a2, 16
40081619:	fbad91        	l32r	a9, 400804d0 <_init_end+0xd0> (3ffb05a0 <slice_ticks>)
4008161c:	0222a2        	l32i	a10, a2, 8
4008161f:	0989      	s32i.n	a8, a9, 0
40081621:	fbae81        	l32r	a8, 400804dc <_init_end+0xdc> (3ffb059c <slice_max_prio>)
40081624:	0839      	s32i.n	a3, a8, 0
40081626:	ffd265        	call8	4008134c <z_reset_time_slice>
40081629:	13e640        	wsr.ps	a4
4008162c:	002010        	rsync
4008162f:	f01d      	retw.n
40081631:	000000        	ill

40081634 <z_time_slice>:
40081634:	004136        	entry	a1, 32
40081637:	006340        	rsil	a4, 3
4008163a:	fba591        	l32r	a9, 400804d0 <_init_end+0xd0> (3ffb05a0 <slice_ticks>)
4008163d:	fb7281        	l32r	a8, 40080408 <_init_end+0x8> (3ffb0578 <_kernel>)
40081640:	002992        	l32i	a9, a9, 0
40081643:	022832        	l32i	a3, a8, 8
40081646:	046916        	beqz	a9, 40081690 <z_time_slice+0x5c>
40081649:	071392        	l16ui	a9, a3, 14
4008164c:	7fa0a2        	movi	a10, 127
4008164f:	3d3a97        	bltu	a10, a9, 40081690 <z_time_slice+0x5c>
40081652:	0d0392        	l8ui	a9, a3, 13
40081655:	449090        	extui	a9, a9, 0, 5
40081658:	49fc      	bnez.n	a9, 40081690 <z_time_slice+0x5c>
4008165a:	fba0b1        	l32r	a11, 400804dc <_init_end+0xdc> (3ffb059c <slice_max_prio>)
4008165d:	0e03a2        	l8ui	a10, a3, 14
40081660:	0bb8      	l32i.n	a11, a11, 0
40081662:	23aa00        	sext	a10, a10, 7
40081665:	272ab7        	blt	a10, a11, 40081690 <z_time_slice+0x5c>
40081668:	fb8eb1        	l32r	a11, 400804a0 <_init_end+0xa0> (3ffb0388 <z_idle_threads>)
4008166b:	1a0c      	movi.n	a10, 1
4008166d:	c0b3b0        	sub	a11, a3, a11
40081670:	939ab0        	movnez	a9, a10, a11
40081673:	999c      	beqz.n	a9, 40081690 <z_time_slice+0x5c>
40081675:	4898      	l32i.n	a9, a8, 16
40081677:	0d2297        	blt	a2, a9, 40081688 <z_time_slice+0x54>
4008167a:	03ad      	mov.n	a10, a3
4008167c:	ffdae5        	call8	4008142c <move_thread_to_end_of_prio_q>
4008167f:	03ad      	mov.n	a10, a3
40081681:	ffcca5        	call8	4008134c <z_reset_time_slice>
40081684:	000306        	j	40081694 <z_time_slice+0x60>
40081687:	00          	.byte 00
40081688:	c09920        	sub	a9, a9, a2
4008168b:	4899      	s32i.n	a9, a8, 16
4008168d:	0000c6        	j	40081694 <z_time_slice+0x60>
40081690:	020c      	movi.n	a2, 0
40081692:	4829      	s32i.n	a2, a8, 16
40081694:	13e640        	wsr.ps	a4
40081697:	002010        	rsync
4008169a:	f01d      	retw.n

4008169c <z_ready_thread>:
4008169c:	004136        	entry	a1, 32
4008169f:	02ad      	mov.n	a10, a2
400816a1:	006330        	rsil	a3, 3
400816a4:	ffdfe5        	call8	400814a4 <ready_thread>
400816a7:	13e630        	wsr.ps	a3
400816aa:	002010        	rsync
400816ad:	f01d      	retw.n
	...

400816b0 <z_pend_curr>:
400816b0:	004136        	entry	a1, 32
400816b3:	fb5581        	l32r	a8, 40080408 <_init_end+0x8> (3ffb0578 <_kernel>)
400816b6:	20d770        	or	a13, a7, a7
400816b9:	0228a2        	l32i	a10, a8, 8
400816bc:	06cd      	mov.n	a12, a6
400816be:	04bd      	mov.n	a11, a4
400816c0:	fff0e5        	call8	400815d0 <pend>
400816c3:	03bd      	mov.n	a11, a3
400816c5:	02ad      	mov.n	a10, a2
400816c7:	ffcde5        	call8	400813a4 <z_swap>
400816ca:	0a2d      	mov.n	a2, a10
400816cc:	f01d      	retw.n
	...

400816d0 <z_unpend_first_thread>:
400816d0:	004136        	entry	a1, 32
400816d3:	208220        	or	a8, a2, a2
400816d6:	006330        	rsil	a3, 3
400816d9:	002222        	l32i	a2, a2, 0
400816dc:	029c      	beqz.n	a2, 400816f0 <z_unpend_first_thread+0x20>
400816de:	0e1827        	beq	a8, a2, 400816f0 <z_unpend_first_thread+0x20>
400816e1:	20a220        	or	a10, a2, a2
400816e4:	ffc4a5        	call8	40081330 <unpend_thread_no_timeout>
400816e7:	18c2a2        	addi	a10, a2, 24
400816ea:	0053e5        	call8	40081c28 <z_abort_timeout>
400816ed:	000046        	j	400816f2 <z_unpend_first_thread+0x22>
400816f0:	020c      	movi.n	a2, 0
400816f2:	13e630        	wsr.ps	a3
400816f5:	002010        	rsync
400816f8:	f01d      	retw.n
	...

400816fc <z_unpend_thread>:
400816fc:	004136        	entry	a1, 32
400816ff:	006330        	rsil	a3, 3
40081702:	20a220        	or	a10, a2, a2
40081705:	ffc2a5        	call8	40081330 <unpend_thread_no_timeout>
40081708:	13e630        	wsr.ps	a3
4008170b:	002010        	rsync
4008170e:	18c2a2        	addi	a10, a2, 24
40081711:	005165        	call8	40081c28 <z_abort_timeout>
40081714:	000090        	retw
	...

40081718 <z_reschedule>:
40081718:	004136        	entry	a1, 32
4008171b:	348030        	extui	a8, a3, 0, 4
4008171e:	02ad      	mov.n	a10, a2
40081720:	03bd      	mov.n	a11, a3
40081722:	68dc      	bnez.n	a8, 4008173c <z_reschedule+0x24>
40081724:	03f580        	rsr.misc1	a8
40081727:	0888      	l32i.n	a8, a8, 0
40081729:	f8cc      	bnez.n	a8, 4008173c <z_reschedule+0x24>
4008172b:	fb3781        	l32r	a8, 40080408 <_init_end+0x8> (3ffb0578 <_kernel>)
4008172e:	6898      	l32i.n	a9, a8, 24
40081730:	2888      	l32i.n	a8, a8, 8
40081732:	061987        	beq	a9, a8, 4008173c <z_reschedule+0x24>
40081735:	ffc6e5        	call8	400813a4 <z_swap>
40081738:	000186        	j	40081742 <z_reschedule+0x2a>
4008173b:	00          	.byte 00
4008173c:	13e6b0        	wsr.ps	a11
4008173f:	002010        	rsync
40081742:	f01d      	retw.n

40081744 <z_sched_start>:
40081744:	004136        	entry	a1, 32
40081747:	02ad      	mov.n	a10, a2
40081749:	006320        	rsil	a2, 3
4008174c:	0d0a82        	l8ui	a8, a10, 13
4008174f:	0be827        	bbsi	a8, 2, 4008175e <z_sched_start+0x1a>
40081752:	13e620        	wsr.ps	a2
40081755:	002010        	rsync
40081758:	0005c6        	j	40081773 <z_sched_start+0x2f>
4008175b:	00          	.byte 00
4008175c:	00          	.byte 00
4008175d:	00          	.byte 00
4008175e:	fbaf92        	movi	a9, -5
40081761:	108890        	and	a8, a8, a9
40081764:	0d4a82        	s8i	a8, a10, 13
40081767:	ffd3e5        	call8	400814a4 <ready_thread>
4008176a:	fb5aa1        	l32r	a10, 400804d4 <_init_end+0xd4> (3ffb05cd <sched_spinlock>)
4008176d:	20b220        	or	a11, a2, a2
40081770:	fffa65        	call8	40081718 <z_reschedule>
40081773:	000090        	retw
	...

40081778 <z_reschedule_irqlock>:
40081778:	004136        	entry	a1, 32
4008177b:	348020        	extui	a8, a2, 0, 4
4008177e:	20a220        	or	a10, a2, a2
40081781:	00f856        	bnez	a8, 40081794 <z_reschedule_irqlock+0x1c>
40081784:	03f580        	rsr.misc1	a8
40081787:	002882        	l32i	a8, a8, 0
4008178a:	006856        	bnez	a8, 40081794 <z_reschedule_irqlock+0x1c>
4008178d:	ffbde5        	call8	4008136c <z_swap_irqlock>
40081790:	000186        	j	4008179a <z_reschedule_irqlock+0x22>
40081793:	00          	.byte 00
40081794:	13e6a0        	wsr.ps	a10
40081797:	002010        	rsync
4008179a:	f01d      	retw.n

4008179c <z_reschedule_unlocked>:
4008179c:	004136        	entry	a1, 32
4008179f:	0063a0        	rsil	a10, 3
400817a2:	fffd65        	call8	40081778 <z_reschedule_irqlock>
400817a5:	f01d      	retw.n
	...

400817a8 <z_impl_k_thread_suspend>:
400817a8:	004136        	entry	a1, 32
400817ab:	18c2a2        	addi	a10, a2, 24
400817ae:	0047a5        	call8	40081c28 <z_abort_timeout>
400817b1:	006330        	rsil	a3, 3
400817b4:	0d0282        	l8ui	a8, a2, 13
400817b7:	234800        	sext	a4, a8, 7
400817ba:	00a4d6        	bgez	a4, 400817c8 <z_impl_k_thread_suspend+0x20>
400817bd:	648080        	extui	a8, a8, 0, 7
400817c0:	0d4282        	s8i	a8, a2, 13
400817c3:	02ad      	mov.n	a10, a2
400817c5:	006565        	call8	40081e1c <sys_dlist_remove>
400817c8:	0d0282        	l8ui	a8, a2, 13
400817cb:	041c      	movi.n	a4, 16
400817cd:	208840        	or	a8, a8, a4
400817d0:	fb0e41        	l32r	a4, 40080408 <_init_end+0x8> (3ffb0578 <_kernel>)
400817d3:	0d4282        	s8i	a8, a2, 13
400817d6:	022482        	l32i	a8, a4, 8
400817d9:	090c      	movi.n	a9, 0
400817db:	c08820        	sub	a8, a8, a2
400817de:	01a0a2        	movi	a10, 1
400817e1:	93a980        	movnez	a10, a9, a8
400817e4:	ffbfa5        	call8	400813e0 <update_cache>
400817e7:	13e630        	wsr.ps	a3
400817ea:	002010        	rsync
400817ed:	2438      	l32i.n	a3, a4, 8
400817ef:	029327        	bne	a3, a2, 400817f5 <z_impl_k_thread_suspend+0x4d>
400817f2:	fffaa5        	call8	4008179c <z_reschedule_unlocked>
400817f5:	f01d      	retw.n
	...

400817f8 <k_sched_lock>:
400817f8:	004136        	entry	a1, 32
400817fb:	0063a0        	rsil	a10, 3
400817fe:	fb0281        	l32r	a8, 40080408 <_init_end+0x8> (3ffb0578 <_kernel>)
40081801:	2898      	l32i.n	a9, a8, 8
40081803:	0f0982        	l8ui	a8, a9, 15
40081806:	880b      	addi.n	a8, a8, -1
40081808:	0f4982        	s8i	a8, a9, 15
4008180b:	13e6a0        	wsr.ps	a10
4008180e:	002010        	rsync
40081811:	f01d      	retw.n
	...

40081814 <k_sched_unlock>:
40081814:	004136        	entry	a1, 32
40081817:	006320        	rsil	a2, 3
4008181a:	fafb81        	l32r	a8, 40080408 <_init_end+0x8> (3ffb0578 <_kernel>)
4008181d:	00a0a2        	movi	a10, 0
40081820:	022892        	l32i	a9, a8, 8
40081823:	0f0982        	l8ui	a8, a9, 15
40081826:	01c882        	addi	a8, a8, 1
40081829:	0f4982        	s8i	a8, a9, 15
4008182c:	ffbb25        	call8	400813e0 <update_cache>
4008182f:	13e620        	wsr.ps	a2
40081832:	002010        	rsync
40081835:	fff665        	call8	4008179c <z_reschedule_unlocked>
40081838:	f01d      	retw.n
	...

4008183c <z_swap_next_thread>:
4008183c:	004136        	entry	a1, 32
4008183f:	faf281        	l32r	a8, 40080408 <_init_end+0x8> (3ffb0578 <_kernel>)
40081842:	6828      	l32i.n	a2, a8, 24
40081844:	f01d      	retw.n
	...

40081848 <z_get_next_switch_handle>:
40081848:	004136        	entry	a1, 32
4008184b:	faef81        	l32r	a8, 40080408 <_init_end+0x8> (3ffb0578 <_kernel>)
4008184e:	28a8      	l32i.n	a10, a8, 8
40081850:	6898      	l32i.n	a9, a8, 24
40081852:	126a22        	s32i	a2, a10, 72
40081855:	122922        	l32i	a2, a9, 72
40081858:	2899      	s32i.n	a9, a8, 8
4008185a:	f01d      	retw.n

4008185c <z_unpend_all>:
4008185c:	004136        	entry	a1, 32
4008185f:	080c      	movi.n	a8, 0
40081861:	140c      	movi.n	a4, 1
40081863:	000346        	j	40081874 <z_unpend_all+0x18>
40081866:	20a330        	or	a10, a3, a3
40081869:	ffe925        	call8	400816fc <z_unpend_thread>
4008186c:	20a330        	or	a10, a3, a3
4008186f:	ffe2e5        	call8	4008169c <z_ready_thread>
40081872:	048d      	mov.n	a8, a4
40081874:	0238      	l32i.n	a3, a2, 0
40081876:	002316        	beqz	a3, 4008187c <z_unpend_all+0x20>
40081879:	e99237        	bne	a2, a3, 40081866 <z_unpend_all+0xa>
4008187c:	082d      	mov.n	a2, a8
4008187e:	f01d      	retw.n

40081880 <z_sched_init>:
40081880:	004136        	entry	a1, 32
40081883:	fae181        	l32r	a8, 40080408 <_init_end+0x8> (3ffb0578 <_kernel>)
40081886:	fb1491        	l32r	a9, 400804d8 <_init_end+0xd8> (3ffb0594 <_kernel+0x1c>)
40081889:	0b0c      	movi.n	a11, 0
4008188b:	7899      	s32i.n	a9, a8, 28
4008188d:	8899      	s32i.n	a9, a8, 32
4008188f:	0bad      	mov.n	a10, a11
40081891:	ffd6a5        	call8	400815fc <k_sched_time_slice_set>
40081894:	f01d      	retw.n
	...

40081898 <z_impl_k_yield>:
40081898:	004136        	entry	a1, 32
4008189b:	006330        	rsil	a3, 3
4008189e:	fada21        	l32r	a2, 40080408 <_init_end+0x8> (3ffb0578 <_kernel>)
400818a1:	0222a2        	l32i	a10, a2, 8
400818a4:	0d0a82        	l8ui	a8, a10, 13
400818a7:	648080        	extui	a8, a8, 0, 7
400818aa:	0d4a82        	s8i	a8, a10, 13
400818ad:	0056e5        	call8	40081e1c <sys_dlist_remove>
400818b0:	022282        	l32i	a8, a2, 8
400818b3:	80afa2        	movi	a10, -128
400818b6:	0d0892        	l8ui	a9, a8, 13
400818b9:	fb07d1        	l32r	a13, 400804d8 <_init_end+0xd8> (3ffb0594 <_kernel+0x1c>)
400818bc:	2099a0        	or	a9, a9, a10
400818bf:	0d4892        	s8i	a9, a8, 13
400818c2:	072292        	l32i	a9, a2, 28
400818c5:	0199d7        	bne	a9, a13, 400818ca <z_impl_k_yield+0x32>
400818c8:	090c      	movi.n	a9, 0
400818ca:	82c8      	l32i.n	a12, a2, 32
400818cc:	000986        	j	400818f6 <z_impl_k_yield+0x5e>
400818cf:	00          	.byte 00
400818d0:	0e08b2        	l8ui	a11, a8, 14
400818d3:	0e09a2        	l8ui	a10, a9, 14
400818d6:	23bb00        	sext	a11, a11, 7
400818d9:	23aa00        	sext	a10, a10, 7
400818dc:	101ba7        	beq	a11, a10, 400818f0 <z_impl_k_yield+0x58>
400818df:	0daba7        	bge	a11, a10, 400818f0 <z_impl_k_yield+0x58>
400818e2:	1928      	l32i.n	a2, a9, 4
400818e4:	0899      	s32i.n	a9, a8, 0
400818e6:	1829      	s32i.n	a2, a8, 4
400818e8:	0289      	s32i.n	a8, a2, 0
400818ea:	1989      	s32i.n	a8, a9, 4
400818ec:	000486        	j	40081902 <z_impl_k_yield+0x6a>
400818ef:	00          	.byte 00
400818f0:	0519c7        	beq	a9, a12, 400818f9 <z_impl_k_yield+0x61>
400818f3:	002992        	l32i	a9, a9, 0
400818f6:	fd6956        	bnez	a9, 400818d0 <z_impl_k_yield+0x38>
400818f9:	0068d2        	s32i	a13, a8, 0
400818fc:	18c9      	s32i.n	a12, a8, 4
400818fe:	0c89      	s32i.n	a8, a12, 0
40081900:	8289      	s32i.n	a8, a2, 32
40081902:	01a0a2        	movi	a10, 1
40081905:	ffada5        	call8	400813e0 <update_cache>
40081908:	faf3a1        	l32r	a10, 400804d4 <_init_end+0xd4> (3ffb05cd <sched_spinlock>)
4008190b:	03bd      	mov.n	a11, a3
4008190d:	ffa965        	call8	400813a4 <z_swap>
40081910:	f01d      	retw.n
	...

40081914 <z_tick_sleep>:
40081914:	004136        	entry	a1, 32
40081917:	204230        	or	a4, a2, a3
4008191a:	74cc      	bnez.n	a4, 40081925 <z_tick_sleep+0x11>
4008191c:	fff7a5        	call8	40081898 <z_impl_k_yield>
4008191f:	0015c6        	j	4008197a <z_tick_sleep+0x66>
40081922:	00          	.byte 00
40081923:	00          	.byte 00
40081924:	00          	.byte 00
40081925:	1003a6        	blti	a3, -1, 40081939 <z_tick_sleep+0x25>
40081928:	040366        	bnei	a3, -1, 40081930 <z_tick_sleep+0x1c>
4008192b:	e47c      	movi.n	a4, -2
4008192d:	083247        	bltu	a2, a4, 40081939 <z_tick_sleep+0x25>
40081930:	0042e5        	call8	40081d60 <sys_clock_tick_get_32>
40081933:	4a2a      	add.n	a4, a10, a2
40081935:	000146        	j	4008193e <z_tick_sleep+0x2a>
40081938:	00          	.byte 00
40081939:	e47c      	movi.n	a4, -2
4008193b:	c04420        	sub	a4, a4, a2
4008193e:	006350        	rsil	a5, 3
40081941:	fab161        	l32r	a6, 40080408 <_init_end+0x8> (3ffb0578 <_kernel>)
40081944:	26a8      	l32i.n	a10, a6, 8
40081946:	ffc025        	call8	40081548 <unready_thread>
40081949:	26a8      	l32i.n	a10, a6, 8
4008194b:	fadfb1        	l32r	a11, 400804c8 <_init_end+0xc8> (40081514 <z_thread_timeout>)
4008194e:	02cd      	mov.n	a12, a2
40081950:	03dd      	mov.n	a13, a3
40081952:	18caa2        	addi	a10, a10, 24
40081955:	001c25        	call8	40081b18 <z_add_timeout>
40081958:	2638      	l32i.n	a3, a6, 8
4008195a:	10a062        	movi	a6, 16
4008195d:	0d0322        	l8ui	a2, a3, 13
40081960:	fadda1        	l32r	a10, 400804d4 <_init_end+0xd4> (3ffb05cd <sched_spinlock>)
40081963:	202260        	or	a2, a2, a6
40081966:	0d4322        	s8i	a2, a3, 13
40081969:	20b550        	or	a11, a5, a5
4008196c:	ffa365        	call8	400813a4 <z_swap>
4008196f:	003f25        	call8	40081d60 <sys_clock_tick_get_32>
40081972:	c024a0        	sub	a2, a4, a10
40081975:	013427        	bltu	a4, a2, 4008197a <z_tick_sleep+0x66>
40081978:	02cc      	bnez.n	a2, 4008197c <z_tick_sleep+0x68>
4008197a:	020c      	movi.n	a2, 0
4008197c:	f01d      	retw.n
	...

40081980 <z_impl_k_sleep>:
40081980:	004136        	entry	a1, 32
40081983:	20a220        	or	a10, a2, a2
40081986:	110266        	bnei	a2, -1, 4008199b <z_impl_k_sleep+0x1b>
40081989:	0e0366        	bnei	a3, -1, 4008199b <z_impl_k_sleep+0x1b>
4008198c:	fa9f81        	l32r	a8, 40080408 <_init_end+0x8> (3ffb0578 <_kernel>)
4008198f:	0228a2        	l32i	a10, a8, 8
40081992:	ffe165        	call8	400817a8 <z_impl_k_thread_suspend>
40081995:	20a330        	or	a10, a3, a3
40081998:	000446        	j	400819ad <z_impl_k_sleep+0x2d>
4008199b:	03bd      	mov.n	a11, a3
4008199d:	fff765        	call8	40081914 <z_tick_sleep>
400819a0:	ac0c      	movi.n	a12, 10
400819a2:	0d0c      	movi.n	a13, 0
400819a4:	31bfa0        	srai	a11, a10, 31
400819a7:	face81        	l32r	a8, 400804e0 <_init_end+0xe0> (4000cff8 <__udivdi3>)
400819aa:	0008e0        	callx8	a8
400819ad:	0a2d      	mov.n	a2, a10
400819af:	f01d      	retw.n
400819b1:	000000        	ill

400819b4 <z_impl_z_current_get>:
400819b4:	004136        	entry	a1, 32
400819b7:	fa9481        	l32r	a8, 40080408 <_init_end+0x8> (3ffb0578 <_kernel>)
400819ba:	2828      	l32i.n	a2, a8, 8
400819bc:	f01d      	retw.n
	...

400819c0 <z_thread_abort>:
400819c0:	004136        	entry	a1, 32
400819c3:	006340        	rsil	a4, 3
400819c6:	0c0232        	l8ui	a3, a2, 12
400819c9:	106307        	bbci	a3, 0, 400819dd <z_thread_abort+0x1d>
400819cc:	13e640        	wsr.ps	a4
400819cf:	002010        	rsync
400819d2:	4a0c      	movi.n	a10, 4
400819d4:	fef165        	call8	400808ec <xtensa_arch_except>
400819d7:	0021c6        	j	40081a62 <z_thread_abort+0xa2>
400819da:	00          	.byte 00
400819db:	00          	.byte 00
400819dc:	00          	.byte 00
400819dd:	0d0282        	l8ui	a8, a2, 13
400819e0:	890c      	movi.n	a9, 8
400819e2:	020897        	bnone	a8, a9, 400819e8 <z_thread_abort+0x28>
400819e5:	001cc6        	j	40081a5c <z_thread_abort+0x9c>
400819e8:	dfaf32        	movi	a3, -33
400819eb:	103830        	and	a3, a8, a3
400819ee:	203390        	or	a3, a3, a9
400819f1:	74a030        	extui	a10, a3, 0, 8
400819f4:	05e377        	bbsi	a3, 7, 400819fd <z_thread_abort+0x3d>
400819f7:	0d42a2        	s8i	a10, a2, 13
400819fa:	000406        	j	40081a0e <z_thread_abort+0x4e>
400819fd:	5fa032        	movi	a3, 95
40081a00:	108830        	and	a8, a8, a3
40081a03:	208890        	or	a8, a8, a9
40081a06:	0d4282        	s8i	a8, a2, 13
40081a09:	02ad      	mov.n	a10, a2
40081a0b:	004125        	call8	40081e1c <sys_dlist_remove>
40081a0e:	2238      	l32i.n	a3, a2, 8
40081a10:	338c      	beqz.n	a3, 40081a17 <z_thread_abort+0x57>
40081a12:	02ad      	mov.n	a10, a2
40081a14:	ff91a5        	call8	40081330 <unpend_thread_no_timeout>
40081a17:	18c2a2        	addi	a10, a2, 24
40081a1a:	0020e5        	call8	40081c28 <z_abort_timeout>
40081a1d:	000506        	j	40081a35 <z_thread_abort+0x75>
40081a20:	03ad      	mov.n	a10, a3
40081a22:	ff90e5        	call8	40081330 <unpend_thread_no_timeout>
40081a25:	18c3a2        	addi	a10, a3, 24
40081a28:	001fe5        	call8	40081c28 <z_abort_timeout>
40081a2b:	080c      	movi.n	a8, 0
40081a2d:	116382        	s32i	a8, a3, 68
40081a30:	03ad      	mov.n	a10, a3
40081a32:	ffa725        	call8	400814a4 <ready_thread>
40081a35:	e238      	l32i.n	a3, a2, 56
40081a37:	438c      	beqz.n	a3, 40081a3f <z_thread_abort+0x7f>
40081a39:	38c282        	addi	a8, a2, 56
40081a3c:	e09387        	bne	a3, a8, 40081a20 <z_thread_abort+0x60>
40081a3f:	1a0c      	movi.n	a10, 1
40081a41:	ff99e5        	call8	400813e0 <update_cache>
40081a44:	fa7131        	l32r	a3, 40080408 <_init_end+0x8> (3ffb0578 <_kernel>)
40081a47:	2338      	l32i.n	a3, a3, 8
40081a49:	0f9327        	bne	a3, a2, 40081a5c <z_thread_abort+0x9c>
40081a4c:	03f520        	rsr.misc1	a2
40081a4f:	0228      	l32i.n	a2, a2, 0
40081a51:	007256        	bnez	a2, 40081a5c <z_thread_abort+0x9c>
40081a54:	faa0a1        	l32r	a10, 400804d4 <_init_end+0xd4> (3ffb05cd <sched_spinlock>)
40081a57:	04bd      	mov.n	a11, a4
40081a59:	ff94a5        	call8	400813a4 <z_swap>
40081a5c:	13e640        	wsr.ps	a4
40081a5f:	002010        	rsync
40081a62:	f01d      	retw.n

40081a64 <z_impl_k_thread_abort>:
40081a64:	004136        	entry	a1, 32
40081a67:	02ad      	mov.n	a10, a2
40081a69:	fff565        	call8	400819c0 <z_thread_abort>
40081a6c:	f01d      	retw.n
	...

40081a70 <elapsed>:
40081a70:	004136        	entry	a1, 32
40081a73:	fa9c81        	l32r	a8, 400804e4 <_init_end+0xe4> (3ffb05a4 <announce_remaining>)
40081a76:	0a0c      	movi.n	a10, 0
40081a78:	0888      	l32i.n	a8, a8, 0
40081a7a:	0298a7        	bne	a8, a10, 40081a80 <elapsed+0x10>
40081a7d:	005825        	call8	40082000 <sys_clock_elapsed>
40081a80:	0a2d      	mov.n	a2, a10
40081a82:	f01d      	retw.n

40081a84 <next_timeout>:
40081a84:	004136        	entry	a1, 32
40081a87:	fa9881        	l32r	a8, 400804e8 <_init_end+0xe8> (3ffb013c <timeout_list>)
40081a8a:	0828      	l32i.n	a2, a8, 0
40081a8c:	089287        	bne	a2, a8, 40081a98 <next_timeout+0x14>
40081a8f:	fffe25        	call8	40081a70 <elapsed>
40081a92:	000b06        	j	40081ac2 <next_timeout+0x3e>
40081a95:	00          	.byte 00
40081a96:	00          	.byte 00
40081a97:	00          	.byte 00
40081a98:	fffd65        	call8	40081a70 <elapsed>
40081a9b:	023216        	beqz	a2, 40081ac2 <next_timeout+0x3e>
40081a9e:	0422b2        	l32i	a11, a2, 16
40081aa1:	052282        	l32i	a8, a2, 20
40081aa4:	c02ba0        	sub	a2, a11, a10
40081aa7:	31cfa0        	srai	a12, a10, 31
40081aaa:	190c      	movi.n	a9, 1
40081aac:	013b27        	bltu	a11, a2, 40081ab1 <next_timeout+0x2d>
40081aaf:	090c      	movi.n	a9, 0
40081ab1:	c088c0        	sub	a8, a8, a12
40081ab4:	c08890        	sub	a8, a8, a9
40081ab7:	0718e6        	bgei	a8, 1, 40081ac2 <next_timeout+0x3e>
40081aba:	b8cc      	bnez.n	a8, 40081ac9 <next_timeout+0x45>
40081abc:	fa5791        	l32r	a9, 40080418 <_init_end+0x18> (7fffffff <_rtc_bss_end+0x2fffffff>)
40081abf:	06b927        	bgeu	a9, a2, 40081ac9 <next_timeout+0x45>
40081ac2:	fa5521        	l32r	a2, 40080418 <_init_end+0x18> (7fffffff <_rtc_bss_end+0x2fffffff>)
40081ac5:	000146        	j	40081ace <next_timeout+0x4a>
40081ac8:	00          	.byte 00
40081ac9:	090c      	movi.n	a9, 0
40081acb:	a32980        	movltz	a2, a9, a8
40081ace:	fa4e81        	l32r	a8, 40080408 <_init_end+0x8> (3ffb0578 <_kernel>)
40081ad1:	4888      	l32i.n	a8, a8, 16
40081ad3:	188c      	beqz.n	a8, 40081ad8 <next_timeout+0x54>
40081ad5:	432280        	min	a2, a2, a8
40081ad8:	f01d      	retw.n
	...

40081adc <remove_timeout>:
40081adc:	004136        	entry	a1, 32
40081adf:	32ac      	beqz.n	a2, 40081b06 <remove_timeout+0x2a>
40081ae1:	fa8181        	l32r	a8, 400804e8 <_init_end+0xe8> (3ffb013c <timeout_list>)
40081ae4:	1888      	l32i.n	a8, a8, 4
40081ae6:	1c1287        	beq	a2, a8, 40081b06 <remove_timeout+0x2a>
40081ae9:	0288      	l32i.n	a8, a2, 0
40081aeb:	789c      	beqz.n	a8, 40081b06 <remove_timeout+0x2a>
40081aed:	48c8      	l32i.n	a12, a8, 16
40081aef:	42a8      	l32i.n	a10, a2, 16
40081af1:	58b8      	l32i.n	a11, a8, 20
40081af3:	acaa      	add.n	a10, a12, a10
40081af5:	52d8      	l32i.n	a13, a2, 20
40081af7:	190c      	movi.n	a9, 1
40081af9:	013ac7        	bltu	a10, a12, 40081afe <remove_timeout+0x22>
40081afc:	090c      	movi.n	a9, 0
40081afe:	bbda      	add.n	a11, a11, a13
40081b00:	99ba      	add.n	a9, a9, a11
40081b02:	48a9      	s32i.n	a10, a8, 16
40081b04:	5899      	s32i.n	a9, a8, 20
40081b06:	0288      	l32i.n	a8, a2, 0
40081b08:	1298      	l32i.n	a9, a2, 4
40081b0a:	0989      	s32i.n	a8, a9, 0
40081b0c:	1899      	s32i.n	a9, a8, 4
40081b0e:	080c      	movi.n	a8, 0
40081b10:	0289      	s32i.n	a8, a2, 0
40081b12:	1289      	s32i.n	a8, a2, 4
40081b14:	f01d      	retw.n
	...

40081b18 <z_add_timeout>:
40081b18:	004136        	entry	a1, 32
40081b1b:	046d      	mov.n	a6, a4
40081b1d:	059d      	mov.n	a9, a5
40081b1f:	050466        	bnei	a4, -1, 40081b28 <z_add_timeout+0x10>
40081b22:	020566        	bnei	a5, -1, 40081b28 <z_add_timeout+0x10>
40081b25:	003f06        	j	40081c25 <z_add_timeout+0x10d>
40081b28:	2239      	s32i.n	a3, a2, 8
40081b2a:	006330        	rsil	a3, 3
40081b2d:	03f9d6        	bgez	a9, 40081b70 <z_add_timeout+0x58>
40081b30:	e87c      	movi.n	a8, -2
40081b32:	020966        	bnei	a9, -1, 40081b38 <z_add_timeout+0x20>
40081b35:	373867        	bltu	a8, a6, 40081b70 <z_add_timeout+0x58>
40081b38:	fa6d61        	l32r	a6, 400804ec <_init_end+0xec> (3ffb0438 <curr_tick>)
40081b3b:	0698      	l32i.n	a9, a6, 0
40081b3d:	16a8      	l32i.n	a10, a6, 4
40081b3f:	c09890        	sub	a9, a8, a9
40081b42:	160c      	movi.n	a6, 1
40081b44:	023897        	bltu	a8, a9, 40081b4a <z_add_timeout+0x32>
40081b47:	00a062        	movi	a6, 0
40081b4a:	f87c      	movi.n	a8, -1
40081b4c:	c088a0        	sub	a8, a8, a10
40081b4f:	c0a940        	sub	a10, a9, a4
40081b52:	c08860        	sub	a8, a8, a6
40081b55:	140c      	movi.n	a4, 1
40081b57:	0139a7        	bltu	a9, a10, 40081b5c <z_add_timeout+0x44>
40081b5a:	040c      	movi.n	a4, 0
40081b5c:	c05850        	sub	a5, a8, a5
40081b5f:	c05540        	sub	a5, a5, a4
40081b62:	2815e6        	bgei	a5, 1, 40081b8e <z_add_timeout+0x76>
40081b65:	05cc      	bnez.n	a5, 40081b69 <z_add_timeout+0x51>
40081b67:	3aec      	bnez.n	a10, 40081b8e <z_add_timeout+0x76>
40081b69:	1a0c      	movi.n	a10, 1
40081b6b:	050c      	movi.n	a5, 0
40081b6d:	000746        	j	40081b8e <z_add_timeout+0x76>
40081b70:	ffefe5        	call8	40081a70 <elapsed>
40081b73:	441b      	addi.n	a4, a4, 1
40081b75:	180c      	movi.n	a8, 1
40081b77:	013467        	bltu	a4, a6, 40081b7c <z_add_timeout+0x64>
40081b7a:	080c      	movi.n	a8, 0
40081b7c:	316fa0        	srai	a6, a10, 31
40081b7f:	a4aa      	add.n	a10, a4, a10
40081b81:	885a      	add.n	a8, a8, a5
40081b83:	150c      	movi.n	a5, 1
40081b85:	013a47        	bltu	a10, a4, 40081b8a <z_add_timeout+0x72>
40081b88:	050c      	movi.n	a5, 0
40081b8a:	886a      	add.n	a8, a8, a6
40081b8c:	558a      	add.n	a5, a5, a8
40081b8e:	fa5641        	l32r	a4, 400804e8 <_init_end+0xe8> (3ffb013c <timeout_list>)
40081b91:	5259      	s32i.n	a5, a2, 20
40081b93:	0458      	l32i.n	a5, a4, 0
40081b95:	42a9      	s32i.n	a10, a2, 16
40081b97:	019547        	bne	a5, a4, 40081b9c <z_add_timeout+0x84>
40081b9a:	050c      	movi.n	a5, 0
40081b9c:	14c8      	l32i.n	a12, a4, 4
40081b9e:	160c      	movi.n	a6, 1
40081ba0:	0d0c      	movi.n	a13, 0
40081ba2:	001506        	j	40081bfa <z_add_timeout+0xe2>
40081ba5:	5598      	l32i.n	a9, a5, 20
40081ba7:	5288      	l32i.n	a8, a2, 20
40081ba9:	0425a2        	l32i	a10, a5, 16
40081bac:	0422b2        	l32i	a11, a2, 16
40081baf:	052897        	blt	a8, a9, 40081bb8 <z_add_timeout+0xa0>
40081bb2:	269987        	bne	a9, a8, 40081bdc <z_add_timeout+0xc4>
40081bb5:	23bba7        	bgeu	a11, a10, 40081bdc <z_add_timeout+0xc4>
40081bb8:	c0bab0        	sub	a11, a10, a11
40081bbb:	01a062        	movi	a6, 1
40081bbe:	023ab7        	bltu	a10, a11, 40081bc4 <z_add_timeout+0xac>
40081bc1:	00a062        	movi	a6, 0
40081bc4:	c09980        	sub	a9, a9, a8
40081bc7:	c09960        	sub	a9, a9, a6
40081bca:	1568      	l32i.n	a6, a5, 4
40081bcc:	45b9      	s32i.n	a11, a5, 16
40081bce:	5599      	s32i.n	a9, a5, 20
40081bd0:	1269      	s32i.n	a6, a2, 4
40081bd2:	0259      	s32i.n	a5, a2, 0
40081bd4:	0629      	s32i.n	a2, a6, 0
40081bd6:	1529      	s32i.n	a2, a5, 4
40081bd8:	000a46        	j	40081c05 <z_add_timeout+0xed>
40081bdb:	00          	.byte 00
40081bdc:	c0aba0        	sub	a10, a11, a10
40081bdf:	20e660        	or	a14, a6, a6
40081be2:	023ba7        	bltu	a11, a10, 40081be8 <z_add_timeout+0xd0>
40081be5:	20edd0        	or	a14, a13, a13
40081be8:	c08890        	sub	a8, a8, a9
40081beb:	c088e0        	sub	a8, a8, a14
40081bee:	0462a2        	s32i	a10, a2, 16
40081bf1:	056282        	s32i	a8, a2, 20
40081bf4:	051c57        	beq	a12, a5, 40081bfd <z_add_timeout+0xe5>
40081bf7:	002552        	l32i	a5, a5, 0
40081bfa:	fa7556        	bnez	a5, 40081ba5 <z_add_timeout+0x8d>
40081bfd:	0249      	s32i.n	a4, a2, 0
40081bff:	12c9      	s32i.n	a12, a2, 4
40081c01:	0c29      	s32i.n	a2, a12, 0
40081c03:	1429      	s32i.n	a2, a4, 4
40081c05:	0458      	l32i.n	a5, a4, 0
40081c07:	149257        	bne	a2, a5, 40081c1f <z_add_timeout+0x107>
40081c0a:	111547        	beq	a5, a4, 40081c1f <z_add_timeout+0x107>
40081c0d:	ffe765        	call8	40081a84 <next_timeout>
40081c10:	6a8c      	beqz.n	a10, 40081c1a <z_add_timeout+0x102>
40081c12:	f9fd21        	l32r	a2, 40080408 <_init_end+0x8> (3ffb0578 <_kernel>)
40081c15:	4228      	l32i.n	a2, a2, 16
40081c17:	0412a7        	beq	a2, a10, 40081c1f <z_add_timeout+0x107>
40081c1a:	0b0c      	movi.n	a11, 0
40081c1c:	0037e5        	call8	40081f9c <sys_clock_set_timeout>
40081c1f:	13e630        	wsr.ps	a3
40081c22:	002010        	rsync
40081c25:	f01d      	retw.n
	...

40081c28 <z_abort_timeout>:
40081c28:	004136        	entry	a1, 32
40081c2b:	02ad      	mov.n	a10, a2
40081c2d:	006320        	rsil	a2, 3
40081c30:	0a98      	l32i.n	a9, a10, 0
40081c32:	a86c      	movi.n	a8, -22
40081c34:	004916        	beqz	a9, 40081c3c <z_abort_timeout+0x14>
40081c37:	ffea65        	call8	40081adc <remove_timeout>
40081c3a:	080c      	movi.n	a8, 0
40081c3c:	13e620        	wsr.ps	a2
40081c3f:	002010        	rsync
40081c42:	082d      	mov.n	a2, a8
40081c44:	f01d      	retw.n
	...

40081c48 <z_set_timeout_expiry>:
40081c48:	004136        	entry	a1, 32
40081c4b:	743030        	extui	a3, a3, 0, 8
40081c4e:	006340        	rsil	a4, 3
40081c51:	ffe325        	call8	40081a84 <next_timeout>
40081c54:	0b0c      	movi.n	a11, 0
40081c56:	ca1b      	addi.n	a12, a10, 1
40081c58:	180c      	movi.n	a8, 1
40081c5a:	0b9d      	mov.n	a9, a11
40081c5c:	8398c0        	moveqz	a9, a8, a12
40081c5f:	01aa27        	bge	a10, a2, 40081c64 <z_set_timeout_expiry+0x1c>
40081c62:	0b8d      	mov.n	a8, a11
40081c64:	208980        	or	a8, a9, a8
40081c67:	0a6807        	bbci	a8, 0, 40081c75 <z_set_timeout_expiry+0x2d>
40081c6a:	072aa6        	blti	a10, 2, 40081c75 <z_set_timeout_expiry+0x2d>
40081c6d:	03bd      	mov.n	a11, a3
40081c6f:	43aa20        	min	a10, a10, a2
40081c72:	0032a5        	call8	40081f9c <sys_clock_set_timeout>
40081c75:	13e640        	wsr.ps	a4
40081c78:	002010        	rsync
40081c7b:	f01d      	retw.n
40081c7d:	000000        	ill

40081c80 <sys_clock_announce>:
40081c80:	006136        	entry	a1, 48
40081c83:	02ad      	mov.n	a10, a2
40081c85:	ff9ae5        	call8	40081634 <z_time_slice>
40081c88:	006360        	rsil	a6, 3
40081c8b:	040c      	movi.n	a4, 0
40081c8d:	045d      	mov.n	a5, a4
40081c8f:	000e06        	j	40081ccb <sys_clock_announce+0x4b>
40081c92:	878a      	add.n	a8, a7, a8
40081c94:	319f70        	srai	a9, a7, 31
40081c97:	120c      	movi.n	a2, 1
40081c99:	013877        	bltu	a8, a7, 40081c9e <sys_clock_announce+0x1e>
40081c9c:	020c      	movi.n	a2, 0
40081c9e:	8099d0        	add	a9, a9, a13
40081ca1:	802290        	add	a2, a2, a9
40081ca4:	006b82        	s32i	a8, a11, 0
40081ca7:	1b29      	s32i.n	a2, a11, 4
40081ca9:	4349      	s32i.n	a4, a3, 16
40081cab:	5359      	s32i.n	a5, a3, 20
40081cad:	03ad      	mov.n	a10, a3
40081caf:	01c9      	s32i.n	a12, a1, 0
40081cb1:	ffe2a5        	call8	40081adc <remove_timeout>
40081cb4:	13e660        	wsr.ps	a6
40081cb7:	002010        	rsync
40081cba:	2328      	l32i.n	a2, a3, 8
40081cbc:	03ad      	mov.n	a10, a3
40081cbe:	0002e0        	callx8	a2
40081cc1:	006360        	rsil	a6, 3
40081cc4:	01c8      	l32i.n	a12, a1, 0
40081cc6:	0c28      	l32i.n	a2, a12, 0
40081cc8:	c02270        	sub	a2, a2, a7
40081ccb:	fa0771        	l32r	a7, 400804e8 <_init_end+0xe8> (3ffb013c <timeout_list>)
40081cce:	fa05c1        	l32r	a12, 400804e4 <_init_end+0xe4> (3ffb05a4 <announce_remaining>)
40081cd1:	fa06b1        	l32r	a11, 400804ec <_init_end+0xec> (3ffb0438 <curr_tick>)
40081cd4:	0738      	l32i.n	a3, a7, 0
40081cd6:	0c29      	s32i.n	a2, a12, 0
40081cd8:	0b88      	l32i.n	a8, a11, 0
40081cda:	1bd8      	l32i.n	a13, a11, 4
40081cdc:	31af20        	srai	a10, a2, 31
40081cdf:	121377        	beq	a3, a7, 40081cf5 <sys_clock_announce+0x75>
40081ce2:	f38c      	beqz.n	a3, 40081cf5 <sys_clock_announce+0x75>
40081ce4:	5398      	l32i.n	a9, a3, 20
40081ce6:	4378      	l32i.n	a7, a3, 16
40081ce8:	302a97        	blt	a10, a9, 40081d1c <sys_clock_announce+0x9c>
40081ceb:	a399a7        	bne	a9, a10, 40081c92 <sys_clock_announce+0x12>
40081cee:	a0b277        	bgeu	a2, a7, 40081c92 <sys_clock_announce+0x12>
40081cf1:	0009c6        	j	40081d1c <sys_clock_announce+0x9c>
40081cf4:	00          	.byte 00
40081cf5:	828a      	add.n	a8, a2, a8
40081cf7:	130c      	movi.n	a3, 1
40081cf9:	013827        	bltu	a8, a2, 40081cfe <sys_clock_announce+0x7e>
40081cfc:	030c      	movi.n	a3, 0
40081cfe:	80aad0        	add	a10, a10, a13
40081d01:	8033a0        	add	a3, a3, a10
40081d04:	020c      	movi.n	a2, 0
40081d06:	0b89      	s32i.n	a8, a11, 0
40081d08:	1b39      	s32i.n	a3, a11, 4
40081d0a:	0c29      	s32i.n	a2, a12, 0
40081d0c:	ffd765        	call8	40081a84 <next_timeout>
40081d0f:	02bd      	mov.n	a11, a2
40081d11:	0028a5        	call8	40081f9c <sys_clock_set_timeout>
40081d14:	13e660        	wsr.ps	a6
40081d17:	002010        	rsync
40081d1a:	f01d      	retw.n
40081d1c:	c04720        	sub	a4, a7, a2
40081d1f:	01a052        	movi	a5, 1
40081d22:	023747        	bltu	a7, a4, 40081d28 <sys_clock_announce+0xa8>
40081d25:	00a052        	movi	a5, 0
40081d28:	c099a0        	sub	a9, a9, a10
40081d2b:	c09950        	sub	a9, a9, a5
40081d2e:	4349      	s32i.n	a4, a3, 16
40081d30:	5399      	s32i.n	a9, a3, 20
40081d32:	ffefc6        	j	40081cf5 <sys_clock_announce+0x75>
40081d35:	000000        	ill

40081d38 <sys_clock_tick_get>:
40081d38:	004136        	entry	a1, 32
40081d3b:	006340        	rsil	a4, 3
40081d3e:	ffd325        	call8	40081a70 <elapsed>
40081d41:	f9ea31        	l32r	a3, 400804ec <_init_end+0xec> (3ffb0438 <curr_tick>)
40081d44:	318fa0        	srai	a8, a10, 31
40081d47:	0328      	l32i.n	a2, a3, 0
40081d49:	1398      	l32i.n	a9, a3, 4
40081d4b:	2a2a      	add.n	a2, a10, a2
40081d4d:	130c      	movi.n	a3, 1
40081d4f:	0132a7        	bltu	a2, a10, 40081d54 <sys_clock_tick_get+0x1c>
40081d52:	030c      	movi.n	a3, 0
40081d54:	889a      	add.n	a8, a8, a9
40081d56:	338a      	add.n	a3, a3, a8
40081d58:	13e640        	wsr.ps	a4
40081d5b:	002010        	rsync
40081d5e:	f01d      	retw.n

40081d60 <sys_clock_tick_get_32>:
40081d60:	004136        	entry	a1, 32
40081d63:	fffd65        	call8	40081d38 <sys_clock_tick_get>
40081d66:	0a2d      	mov.n	a2, a10
40081d68:	f01d      	retw.n
	...

40081d6c <sys_clock_timeout_end_calc>:
40081d6c:	004136        	entry	a1, 32
40081d6f:	020266        	bnei	a2, -1, 40081d75 <sys_clock_timeout_end_calc+0x9>
40081d72:	460326        	beqi	a3, -1, 40081dbc <sys_clock_timeout_end_calc+0x50>
40081d75:	208320        	or	a8, a3, a2
40081d78:	00c856        	bnez	a8, 40081d88 <sys_clock_timeout_end_calc+0x1c>
40081d7b:	fffbe5        	call8	40081d38 <sys_clock_tick_get>
40081d7e:	202aa0        	or	a2, a10, a10
40081d81:	203bb0        	or	a3, a11, a11
40081d84:	000d86        	j	40081dbe <sys_clock_timeout_end_calc+0x52>
40081d87:	00          	.byte 00
40081d88:	e87c      	movi.n	a8, -2
40081d8a:	c0a820        	sub	a10, a8, a2
40081d8d:	190c      	movi.n	a9, 1
40081d8f:	0138a7        	bltu	a8, a10, 40081d94 <sys_clock_timeout_end_calc+0x28>
40081d92:	090c      	movi.n	a9, 0
40081d94:	f87c      	movi.n	a8, -1
40081d96:	c08830        	sub	a8, a8, a3
40081d99:	c08890        	sub	a8, a8, a9
40081d9c:	008896        	bltz	a8, 40081da8 <sys_clock_timeout_end_calc+0x3c>
40081d9f:	0a2d      	mov.n	a2, a10
40081da1:	083d      	mov.n	a3, a8
40081da3:	0005c6        	j	40081dbe <sys_clock_timeout_end_calc+0x52>
40081da6:	00          	.byte 00
40081da7:	00          	.byte 00
40081da8:	fff8e5        	call8	40081d38 <sys_clock_tick_get>
40081dab:	2a2a      	add.n	a2, a10, a2
40081dad:	180c      	movi.n	a8, 1
40081daf:	0132a7        	bltu	a2, a10, 40081db4 <sys_clock_timeout_end_calc+0x48>
40081db2:	080c      	movi.n	a8, 0
40081db4:	bb3a      	add.n	a11, a11, a3
40081db6:	38ba      	add.n	a3, a8, a11
40081db8:	000086        	j	40081dbe <sys_clock_timeout_end_calc+0x52>
40081dbb:	00          	.byte 00
40081dbc:	032d      	mov.n	a2, a3
40081dbe:	f01d      	retw.n

40081dc0 <k_free>:
40081dc0:	004136        	entry	a1, 32
40081dc3:	00b216        	beqz	a2, 40081dd2 <k_free+0x12>
40081dc6:	fcc222        	addi	a2, a2, -4
40081dc9:	0022a2        	l32i	a10, a2, 0
40081dcc:	20b220        	or	a11, a2, a2
40081dcf:	ff3ea5        	call8	400811b8 <k_heap_free>
40081dd2:	f01d      	retw.n

40081dd4 <boot_banner>:
40081dd4:	004136        	entry	a1, 32
40081dd7:	f9c6c1        	l32r	a12, 400804f0 <_init_end+0xf0> (3f400ce7 <CSWTCH$43+0x1ed>)
40081dda:	f9c6b1        	l32r	a11, 400804f4 <_init_end+0xf4> (3f400d29 <xtal_freq+0x2e>)
40081ddd:	f9c6a1        	l32r	a10, 400804f8 <_init_end+0xf8> (3f400d4a <xtal_freq+0x4f>)
40081de0:	00d025        	call8	40082ae4 <printk>
40081de3:	f01d      	retw.n
40081de5:	000000        	ill

40081de8 <z_device_state_init>:
40081de8:	004136        	entry	a1, 32
40081deb:	f01d      	retw.n
40081ded:	000000        	ill

40081df0 <z_device_is_ready>:
40081df0:	004136        	entry	a1, 32
40081df3:	028d      	mov.n	a8, a2
40081df5:	329c      	beqz.n	a2, 40081e0c <z_device_is_ready+0x1c>
40081df7:	3228      	l32i.n	a2, a2, 12
40081df9:	180c      	movi.n	a8, 1
40081dfb:	0298      	l32i.n	a9, a2, 0
40081dfd:	00a022        	movi	a2, 0
40081e00:	849090        	extui	a9, a9, 0, 9
40081e03:	ffd992        	addmi	a9, a9, 0xffffff00
40081e06:	938290        	movnez	a8, a2, a9
40081e09:	748080        	extui	a8, a8, 0, 8
40081e0c:	082d      	mov.n	a2, a8
40081e0e:	f01d      	retw.n

40081e10 <arch_system_halt>:
40081e10:	004136        	entry	a1, 32
40081e13:	006380        	rsil	a8, 3
40081e16:	ffff06        	j	40081e16 <arch_system_halt+0x6>
40081e19:	000000        	ill

40081e1c <sys_dlist_remove>:
40081e1c:	004136        	entry	a1, 32
40081e1f:	0288      	l32i.n	a8, a2, 0
40081e21:	1298      	l32i.n	a9, a2, 4
40081e23:	0989      	s32i.n	a8, a9, 0
40081e25:	1899      	s32i.n	a9, a8, 4
40081e27:	080c      	movi.n	a8, 0
40081e29:	0289      	s32i.n	a8, a2, 0
40081e2b:	1289      	s32i.n	a8, a2, 4
40081e2d:	f01d      	retw.n
	...

40081e30 <xthal_window_spill_nw>:
40081e30:	034820        	rsr.windowbase	a2
40081e33:	221b      	addi.n	a2, a2, 1
40081e35:	400200        	ssr	a2
40081e38:	034930        	rsr.windowstart	a3
40081e3b:	912030        	srl	a2, a3
40081e3e:	a13300        	sll	a3, a3
40081e41:	0bf3d6        	bgez	a3, 40081f04 <xthal_window_spill_nw+0xd4>
40081e44:	f53030        	extui	a3, a3, 16, 16
40081e47:	202230        	or	a2, a2, a3
40081e4a:	603020        	neg	a3, a2
40081e4d:	103320        	and	a3, a3, a2
40081e50:	40f330        	nsau	a3, a3
40081e53:	401300        	ssl	a3
40081e56:	912020        	srl	a2, a2
40081e59:	134920        	wsr.windowstart	a2
40081e5c:	034820        	rsr.windowbase	a2
40081e5f:	1fc222        	addi	a2, a2, 31
40081e62:	c03230        	sub	a3, a2, a3
40081e65:	134830        	wsr.windowbase	a3
40081e68:	002010        	rsync
40081e6b:	034920        	rsr.windowstart	a2
40081e6e:	07a216        	beqz	a2, 40081eec <xthal_window_spill_nw+0xbc>
40081e71:	08e207        	bbsi	a2, 0, 40081e7d <xthal_window_spill_nw+0x4d>
40081e74:	19e217        	bbsi	a2, 1, 40081e91 <xthal_window_spill_nw+0x61>
40081e77:	3ae227        	bbsi	a2, 2, 40081eb5 <xthal_window_spill_nw+0x85>
40081e7a:	002306        	j	40081f0a <xthal_window_spill_nw+0xda>
40081e7d:	f0c932        	addi	a3, a9, -16
40081e80:	0349      	s32i.n	a4, a3, 0
40081e82:	1359      	s32i.n	a5, a3, 4
40081e84:	2369      	s32i.n	a6, a3, 8
40081e86:	3379      	s32i.n	a7, a3, 12
40081e88:	416120        	srli	a6, a2, 1
40081e8b:	408010        	rotw	1
40081e8e:	fff706        	j	40081e6e <xthal_window_spill_nw+0x3e>
40081e91:	f0cd32        	addi	a3, a13, -16
40081e94:	0349      	s32i.n	a4, a3, 0
40081e96:	1359      	s32i.n	a5, a3, 4
40081e98:	2369      	s32i.n	a6, a3, 8
40081e9a:	3379      	s32i.n	a7, a3, 12
40081e9c:	f4c532        	addi	a3, a5, -12
40081e9f:	0338      	l32i.n	a3, a3, 0
40081ea1:	e0c332        	addi	a3, a3, -32
40081ea4:	0389      	s32i.n	a8, a3, 0
40081ea6:	1399      	s32i.n	a9, a3, 4
40081ea8:	23a9      	s32i.n	a10, a3, 8
40081eaa:	33b9      	s32i.n	a11, a3, 12
40081eac:	41a220        	srli	a10, a2, 2
40081eaf:	408020        	rotw	2
40081eb2:	ffee06        	j	40081e6e <xthal_window_spill_nw+0x3e>
40081eb5:	408010        	rotw	1
40081eb8:	f0cdd2        	addi	a13, a13, -16
40081ebb:	0d09      	s32i.n	a0, a13, 0
40081ebd:	1d19      	s32i.n	a1, a13, 4
40081ebf:	2d29      	s32i.n	a2, a13, 8
40081ec1:	3d39      	s32i.n	a3, a13, 12
40081ec3:	f4c132        	addi	a3, a1, -12
40081ec6:	0338      	l32i.n	a3, a3, 0
40081ec8:	10cdd2        	addi	a13, a13, 16
40081ecb:	d0c332        	addi	a3, a3, -48
40081ece:	0349      	s32i.n	a4, a3, 0
40081ed0:	1359      	s32i.n	a5, a3, 4
40081ed2:	2369      	s32i.n	a6, a3, 8
40081ed4:	3379      	s32i.n	a7, a3, 12
40081ed6:	4389      	s32i.n	a8, a3, 16
40081ed8:	5399      	s32i.n	a9, a3, 20
40081eda:	63a9      	s32i.n	a10, a3, 24
40081edc:	73b9      	s32i.n	a11, a3, 28
40081ede:	4080f0        	rotw	-1
40081ee1:	41e320        	srli	a14, a2, 3
40081ee4:	408030        	rotw	3
40081ee7:	ffe0c6        	j	40081e6e <xthal_window_spill_nw+0x3e>
40081eea:	00          	.byte 00
40081eeb:	00          	.byte 00
40081eec:	408010        	rotw	1
40081eef:	034820        	rsr.windowbase	a2
40081ef2:	401200        	ssl	a2
40081ef5:	120c      	movi.n	a2, 1
40081ef7:	a12200        	sll	a2, a2
40081efa:	134920        	wsr.windowstart	a2
40081efd:	002010        	rsync
40081f00:	020c      	movi.n	a2, 0
40081f02:	f00d      	ret.n
40081f04:	120c      	movi.n	a2, 1
40081f06:	f00d      	ret.n
40081f08:	00          	.byte 00
40081f09:	00          	.byte 00
40081f0a:	1122f0        	slli	a2, a2, 1
40081f0d:	221b      	addi.n	a2, a2, 1
40081f0f:	034830        	rsr.windowbase	a3
40081f12:	0ae2f7        	bbsi	a2, 15, 40081f20 <xthal_window_spill_nw+0xf0>
40081f15:	330b      	addi.n	a3, a3, -1
40081f17:	1122f0        	slli	a2, a2, 1
40081f1a:	f762f7        	bbci	a2, 15, 40081f15 <xthal_window_spill_nw+0xe5>
40081f1d:	343030        	extui	a3, a3, 0, 4
40081f20:	401300        	ssl	a3
40081f23:	113200        	slli	a3, a2, 16
40081f26:	812230        	src	a2, a2, a3
40081f29:	f42020        	extui	a2, a2, 0, 16
40081f2c:	134920        	wsr.windowstart	a2
40081f2f:	030330        	rsr.sar	a3
40081f32:	022c      	movi.n	a2, 32
40081f34:	c03230        	sub	a3, a2, a3
40081f37:	134830        	wsr.windowbase	a3
40081f3a:	002010        	rsync
40081f3d:	220c      	movi.n	a2, 2
40081f3f:	f00d      	ret.n
40081f41:	000000        	ill

40081f44 <xthal_window_spill>:
40081f44:	002136        	entry	a1, 16
40081f47:	f96d61        	l32r	a6, 400804fc <_init_end+0xfc> (fffbfff0 <_rtc_bss_end+0xaffbfff0>)
40081f4a:	03e650        	rsr.ps	a5
40081f4d:	004d      	mov.n	a4, a0
40081f4f:	102560        	and	a2, a5, a6
40081f52:	223b      	addi.n	a2, a2, 3
40081f54:	13e620        	wsr.ps	a2
40081f57:	002010        	rsync
40081f5a:	ffed45        	call0	40081e30 <xthal_window_spill_nw>
40081f5d:	040d      	mov.n	a0, a4
40081f5f:	13e650        	wsr.ps	a5
40081f62:	002010        	rsync
40081f65:	f01d      	retw.n
	...

40081f68 <ccompare_isr>:
40081f68:	004136        	entry	a1, 32
40081f6b:	0063c0        	rsil	a12, 3
40081f6e:	03eaa0        	rsr.ccount	a10
40081f71:	f96391        	l32r	a9, 40080500 <_init_end+0x100> (3ffb0574 <last_count>)
40081f74:	f96481        	l32r	a8, 40080504 <_init_end+0x104> (57619f1 <CONFIG_FLASH_SIZE+0x53619f1>)
40081f77:	09b8      	l32i.n	a11, a9, 0
40081f79:	c0aab0        	sub	a10, a10, a11
40081f7c:	a2aa80        	muluh	a10, a10, a8
40081f7f:	77a182        	movi	a8, 0x177
40081f82:	41a9a0        	srli	a10, a10, 9
40081f85:	1188a0        	slli	a8, a8, 6
40081f88:	828a80        	mull	a8, a10, a8
40081f8b:	88ba      	add.n	a8, a8, a11
40081f8d:	0989      	s32i.n	a8, a9, 0
40081f8f:	13e6c0        	wsr.ps	a12
40081f92:	002010        	rsync
40081f95:	ffcea5        	call8	40081c80 <sys_clock_announce>
40081f98:	f01d      	retw.n
	...

40081f9c <sys_clock_set_timeout>:
40081f9c:	004136        	entry	a1, 32
40081f9f:	0d0226        	beqi	a2, -1, 40081fb0 <sys_clock_set_timeout+0x14>
40081fa2:	080c      	movi.n	a8, 0
40081fa4:	0d22a6        	blti	a2, 2, 40081fb5 <sys_clock_set_timeout+0x19>
40081fa7:	f95881        	l32r	a8, 40080508 <_init_end+0x108> (2bb0b <CONFIG_ESP_HEAP_MEM_POOL_REGION_1_SIZE+0x1fb0b>)
40081faa:	072827        	blt	a8, a2, 40081fb5 <sys_clock_set_timeout+0x19>
40081fad:	000086        	j	40081fb3 <sys_clock_set_timeout+0x17>
40081fb0:	f95621        	l32r	a2, 40080508 <_init_end+0x108> (2bb0b <CONFIG_ESP_HEAP_MEM_POOL_REGION_1_SIZE+0x1fb0b>)
40081fb3:	820b      	addi.n	a8, a2, -1
40081fb5:	0063e0        	rsil	a14, 3
40081fb8:	03ead0        	rsr.ccount	a13
40081fbb:	f95121        	l32r	a2, 40080500 <_init_end+0x100> (3ffb0574 <last_count>)
40081fbe:	f953b1        	l32r	a11, 4008050c <_init_end+0x10c> (5dbf <_image_irom_start+0x1f8b>)
40081fc1:	0298      	l32i.n	a9, a2, 0
40081fc3:	77a1c2        	movi	a12, 0x177
40081fc6:	11cca0        	slli	a12, a12, 6
40081fc9:	c0bb90        	sub	a11, a11, a9
40081fcc:	82a8c0        	mull	a10, a8, a12
40081fcf:	bbda      	add.n	a11, a11, a13
40081fd1:	f87c      	movi.n	a8, -1
40081fd3:	3028b0        	xor	a2, a8, a11
40081fd6:	0232a7        	bltu	a2, a10, 40081fdc <sys_clock_set_timeout+0x40>
40081fd9:	808ab0        	add	a8, a10, a11
40081fdc:	f94a21        	l32r	a2, 40080504 <_init_end+0x104> (57619f1 <CONFIG_FLASH_SIZE+0x53619f1>)
40081fdf:	a28820        	muluh	a8, a8, a2
40081fe2:	e7a322        	movi	a2, 0x3e7
40081fe5:	418980        	srli	a8, a8, 9
40081fe8:	8288c0        	mull	a8, a8, a12
40081feb:	898a      	add.n	a8, a9, a8
40081fed:	c0d8d0        	sub	a13, a8, a13
40081ff0:	0132d7        	bltu	a2, a13, 40081ff5 <sys_clock_set_timeout+0x59>
40081ff3:	88ca      	add.n	a8, a8, a12
40081ff5:	13f080        	wsr.ccompare0	a8
40081ff8:	13e6e0        	wsr.ps	a14
40081ffb:	002010        	rsync
40081ffe:	f01d      	retw.n

40082000 <sys_clock_elapsed>:
40082000:	004136        	entry	a1, 32
40082003:	006380        	rsil	a8, 3
40082006:	03ea20        	rsr.ccount	a2
40082009:	f93d91        	l32r	a9, 40080500 <_init_end+0x100> (3ffb0574 <last_count>)
4008200c:	0998      	l32i.n	a9, a9, 0
4008200e:	c02290        	sub	a2, a2, a9
40082011:	f93c91        	l32r	a9, 40080504 <_init_end+0x104> (57619f1 <CONFIG_FLASH_SIZE+0x53619f1>)
40082014:	a22290        	muluh	a2, a2, a9
40082017:	412920        	srli	a2, a2, 9
4008201a:	13e680        	wsr.ps	a8
4008201d:	002010        	rsync
40082020:	f01d      	retw.n
	...

40082024 <sys_clock_driver_init>:
40082024:	004136        	entry	a1, 32
40082027:	03ea80        	rsr.ccount	a8
4008202a:	77a192        	movi	a9, 0x177
4008202d:	1199a0        	slli	a9, a9, 6
40082030:	889a      	add.n	a8, a8, a9
40082032:	13f080        	wsr.ccompare0	a8
40082035:	03e480        	rsr.intenable	a8
40082038:	094c      	movi.n	a9, 64
4008203a:	208890        	or	a8, a8, a9
4008203d:	13e480        	wsr.intenable	a8
40082040:	002010        	rsync
40082043:	020c      	movi.n	a2, 0
40082045:	f01d      	retw.n
	...

40082048 <encode_uint>:
40082048:	006136        	entry	a1, 48
4008204b:	030492        	l8ui	a9, a4, 3
4008204e:	0129      	s32i.n	a2, a1, 0
40082050:	bfc922        	addi	a2, a9, -65
40082053:	2159      	s32i.n	a5, a1, 8
40082055:	1129      	s32i.n	a2, a1, 4
40082057:	6fa022        	movi	a2, 111
4008205a:	047d      	mov.n	a7, a4
4008205c:	850c      	movi.n	a5, 8
4008205e:	1a1927        	beq	a9, a2, 4008207c <encode_uint+0x34>
40082061:	053297        	bltu	a2, a9, 4008206a <encode_uint+0x22>
40082064:	a8c992        	addi	a9, a9, -88
40082067:	0001c6        	j	40082072 <encode_uint+0x2a>
4008206a:	727c      	movi.n	a2, -9
4008206c:	109920        	and	a9, a9, a2
4008206f:	90c992        	addi	a9, a9, -112
40082072:	a20c      	movi.n	a2, 10
40082074:	081c      	movi.n	a8, 16
40082076:	205220        	or	a5, a2, a2
40082079:	835890        	moveqz	a5, a8, a9
4008207c:	064d      	mov.n	a4, a6
4008207e:	921c      	movi.n	a2, 25
40082080:	060c      	movi.n	a6, 0
40082082:	000106        	j	4008208a <encode_uint+0x42>
40082085:	00          	.byte 00
40082086:	01a9      	s32i.n	a10, a1, 0
40082088:	0b3d      	mov.n	a3, a11
4008208a:	01a8      	l32i.n	a10, a1, 0
4008208c:	05cd      	mov.n	a12, a5
4008208e:	0d0c      	movi.n	a13, 0
40082090:	03bd      	mov.n	a11, a3
40082092:	f91f81        	l32r	a8, 40080510 <_init_end+0x110> (4000d280 <__umoddi3>)
40082095:	0008e0        	callx8	a8
40082098:	980c      	movi.n	a8, 9
4008209a:	74b0a0        	extui	a11, a10, 0, 8
4008209d:	0538a7        	bltu	a8, a10, 400820a6 <encode_uint+0x5e>
400820a0:	30cbb2        	addi	a11, a11, 48
400820a3:	000346        	j	400820b4 <encode_uint+0x6c>
400820a6:	1188      	l32i.n	a8, a1, 4
400820a8:	57cba2        	addi	a10, a11, 87
400820ab:	74a0a0        	extui	a10, a10, 0, 8
400820ae:	053287        	bltu	a2, a8, 400820b7 <encode_uint+0x6f>
400820b1:	37cbb2        	addi	a11, a11, 55
400820b4:	74a0b0        	extui	a10, a11, 0, 8
400820b7:	440b      	addi.n	a4, a4, -1
400820b9:	0044a2        	s8i	a10, a4, 0
400820bc:	01a8      	l32i.n	a10, a1, 0
400820be:	05cd      	mov.n	a12, a5
400820c0:	20d660        	or	a13, a6, a6
400820c3:	20b330        	or	a11, a3, a3
400820c6:	f90681        	l32r	a8, 400804e0 <_init_end+0xe0> (4000cff8 <__udivdi3>)
400820c9:	0008e0        	callx8	a8
400820cc:	049637        	bne	a6, a3, 400820d4 <encode_uint+0x8c>
400820cf:	0188      	l32i.n	a8, a1, 0
400820d1:	043857        	bltu	a8, a5, 400820d9 <encode_uint+0x91>
400820d4:	2138      	l32i.n	a3, a1, 8
400820d6:	ac3347        	bltu	a3, a4, 40082086 <encode_uint+0x3e>
400820d9:	001722        	l16ui	a2, a7, 0
400820dc:	1c6257        	bbci	a2, 5, 400820fc <encode_uint+0xb4>
400820df:	0d8566        	bnei	a5, 8, 400820f0 <encode_uint+0xa8>
400820e2:	020722        	l8ui	a2, a7, 2
400820e5:	202520        	or	a2, a5, a2
400820e8:	024722        	s8i	a2, a7, 2
400820eb:	000346        	j	400820fc <encode_uint+0xb4>
400820ee:	00          	.byte 00
400820ef:	00          	.byte 00
400820f0:	08b566        	bnei	a5, 16, 400820fc <encode_uint+0xb4>
400820f3:	020722        	l8ui	a2, a7, 2
400820f6:	208520        	or	a8, a5, a2
400820f9:	024782        	s8i	a8, a7, 2
400820fc:	042d      	mov.n	a2, a4
400820fe:	f01d      	retw.n

40082100 <z_cbvprintf_impl>:
40082100:	010136        	entry	a1, 128
40082103:	126132        	s32i	a3, a1, 72
40082106:	049d      	mov.n	a9, a4
40082108:	116122        	s32i	a2, a1, 68
4008210b:	f159      	s32i.n	a5, a1, 60
4008210d:	c159      	s32i.n	a5, a1, 48
4008210f:	106162        	s32i	a6, a1, 64
40082112:	d169      	s32i.n	a6, a1, 52
40082114:	e179      	s32i.n	a7, a1, 56
40082116:	074d      	mov.n	a4, a7
40082118:	030c      	movi.n	a3, 0
4008211a:	025546        	j	40082a73 <z_cbvprintf_impl+0x973>
4008211d:	591b      	addi.n	a5, a9, 1
4008211f:	136152        	s32i	a5, a1, 76
40082122:	25a052        	movi	a5, 37
40082125:	0e1257        	beq	a2, a5, 40082137 <z_cbvprintf_impl+0x37>
40082128:	1221b2        	l32i	a11, a1, 72
4008212b:	112182        	l32i	a8, a1, 68
4008212e:	20a220        	or	a10, a2, a2
40082131:	0008e0        	callx8	a8
40082134:	01b886        	j	4008281a <z_cbvprintf_impl+0x71a>
40082137:	156192        	s32i	a9, a1, 84
4008213a:	8c1c      	movi.n	a12, 24
4008213c:	0b0c      	movi.n	a11, 0
4008213e:	20a110        	or	a10, a1, a1
40082141:	00a225        	call8	40082b64 <memset>
40082144:	152192        	l32i	a9, a1, 84
40082147:	010952        	l8ui	a5, a9, 1
4008214a:	0c9527        	bne	a5, a2, 4008215a <z_cbvprintf_impl+0x5a>
4008214d:	292b      	addi.n	a2, a9, 2
4008214f:	552c      	movi.n	a5, 37
40082151:	136122        	s32i	a2, a1, 76
40082154:	0b4152        	s8i	a5, a1, 11
40082157:	00f8c6        	j	4008253e <z_cbvprintf_impl+0x43e>
4008215a:	050c      	movi.n	a5, 0
4008215c:	057d      	mov.n	a7, a5
4008215e:	05ad      	mov.n	a10, a5
40082160:	05bd      	mov.n	a11, a5
40082162:	05cd      	mov.n	a12, a5
40082164:	bd2c      	movi.n	a13, 43
40082166:	160c      	movi.n	a6, 1
40082168:	0e3c      	movi.n	a14, 48
4008216a:	3f2c      	movi.n	a15, 35
4008216c:	132182        	l32i	a8, a1, 76
4008216f:	000822        	l8ui	a2, a8, 0
40082172:	6312d7        	beq	a2, a13, 400821d9 <z_cbvprintf_impl+0xd9>
40082175:	083d27        	bltu	a13, a2, 40082181 <z_cbvprintf_impl+0x81>
40082178:	62c226        	beqi	a2, 32, 400821de <z_cbvprintf_impl+0xde>
4008217b:	6512f7        	beq	a2, a15, 400821e4 <z_cbvprintf_impl+0xe4>
4008217e:	0001c6        	j	40082189 <z_cbvprintf_impl+0x89>
40082181:	d82c      	movi.n	a8, 45
40082183:	621287        	beq	a2, a8, 400821e9 <z_cbvprintf_impl+0xe9>
40082186:	6412e7        	beq	a2, a14, 400821ee <z_cbvprintf_impl+0xee>
40082189:	958c      	beqz.n	a5, 40082196 <z_cbvprintf_impl+0x96>
4008218b:	041152        	l16ui	a5, a1, 8
4008218e:	064c      	movi.n	a6, 64
40082190:	205560        	or	a5, a5, a6
40082193:	045152        	s16i	a5, a1, 8
40082196:	a78c      	beqz.n	a7, 400821a4 <z_cbvprintf_impl+0xa4>
40082198:	041152        	l16ui	a5, a1, 8
4008219b:	20a062        	movi	a6, 32
4008219e:	205560        	or	a5, a5, a6
400821a1:	045152        	s16i	a5, a1, 8
400821a4:	9a8c      	beqz.n	a10, 400821b1 <z_cbvprintf_impl+0xb1>
400821a6:	041152        	l16ui	a5, a1, 8
400821a9:	061c      	movi.n	a6, 16
400821ab:	205560        	or	a5, a5, a6
400821ae:	045152        	s16i	a5, a1, 8
400821b1:	9b8c      	beqz.n	a11, 400821be <z_cbvprintf_impl+0xbe>
400821b3:	041152        	l16ui	a5, a1, 8
400821b6:	860c      	movi.n	a6, 8
400821b8:	205560        	or	a5, a5, a6
400821bb:	045152        	s16i	a5, a1, 8
400821be:	ac8c      	beqz.n	a12, 400821cc <z_cbvprintf_impl+0xcc>
400821c0:	041152        	l16ui	a5, a1, 8
400821c3:	04a062        	movi	a6, 4
400821c6:	205560        	or	a5, a5, a6
400821c9:	045152        	s16i	a5, a1, 8
400821cc:	2158      	l32i.n	a5, a1, 8
400821ce:	464c      	movi.n	a6, 68
400821d0:	105650        	and	a5, a6, a5
400821d3:	319567        	bne	a5, a6, 40082208 <z_cbvprintf_impl+0x108>
400821d6:	000886        	j	400821fc <z_cbvprintf_impl+0xfc>
400821d9:	06bd      	mov.n	a11, a6
400821db:	000446        	j	400821f0 <z_cbvprintf_impl+0xf0>
400821de:	06ad      	mov.n	a10, a6
400821e0:	000306        	j	400821f0 <z_cbvprintf_impl+0xf0>
400821e3:	00          	.byte 00
400821e4:	067d      	mov.n	a7, a6
400821e6:	000186        	j	400821f0 <z_cbvprintf_impl+0xf0>
400821e9:	06cd      	mov.n	a12, a6
400821eb:	000046        	j	400821f0 <z_cbvprintf_impl+0xf0>
400821ee:	065d      	mov.n	a5, a6
400821f0:	132122        	l32i	a2, a1, 76
400821f3:	221b      	addi.n	a2, a2, 1
400821f5:	136122        	s32i	a2, a1, 76
400821f8:	ffdc06        	j	4008216c <z_cbvprintf_impl+0x6c>
400821fb:	00          	.byte 00
400821fc:	041152        	l16ui	a5, a1, 8
400821ff:	bfaf62        	movi	a6, -65
40082202:	105560        	and	a5, a5, a6
40082205:	045152        	s16i	a5, a1, 8
40082208:	041172        	l16ui	a7, a1, 8
4008220b:	80a052        	movi	a5, 128
4008220e:	207750        	or	a7, a7, a5
40082211:	045172        	s16i	a7, a1, 8
40082214:	ab2c      	movi.n	a11, 42
40082216:	132152        	l32i	a5, a1, 76
40082219:	060c      	movi.n	a6, 0
4008221b:	9a0c      	movi.n	a10, 9
4008221d:	1b92b7        	bne	a2, a11, 4008223c <z_cbvprintf_impl+0x13c>
40082220:	00a122        	movi	a2, 0x100
40082223:	207720        	or	a7, a7, a2
40082226:	551b      	addi.n	a5, a5, 1
40082228:	045172        	s16i	a7, a1, 8
4008222b:	000d46        	j	40082264 <z_cbvprintf_impl+0x164>
4008222e:	00          	.byte 00
4008222f:	00          	.byte 00
40082230:	00          	.byte 00
40082231:	a06660        	addx4	a6, a6, a6
40082234:	906620        	addx2	a6, a6, a2
40082237:	d0c662        	addi	a6, a6, -48
4008223a:	0b5d      	mov.n	a5, a11
4008223c:	000522        	l8ui	a2, a5, 0
4008223f:	b51b      	addi.n	a11, a5, 1
40082241:	d0c272        	addi	a7, a2, -48
40082244:	e9ba77        	bgeu	a10, a7, 40082231 <z_cbvprintf_impl+0x131>
40082247:	132182        	l32i	a8, a1, 76
4008224a:	161857        	beq	a8, a5, 40082264 <z_cbvprintf_impl+0x164>
4008224d:	041122        	l16ui	a2, a1, 8
40082250:	3169      	s32i.n	a6, a1, 12
40082252:	fdaf72        	movi	a7, -3
40082255:	056f60        	extui	a6, a6, 31, 1
40082258:	806660        	add	a6, a6, a6
4008225b:	102270        	and	a2, a2, a7
4008225e:	202260        	or	a2, a2, a6
40082261:	045122        	s16i	a2, a1, 8
40082264:	0005a2        	l8ui	a10, a5, 0
40082267:	020c      	movi.n	a2, 0
40082269:	d2ca62        	addi	a6, a10, -46
4008226c:	170c      	movi.n	a7, 1
4008226e:	937260        	movnez	a7, a2, a6
40082271:	041162        	l16ui	a6, a1, 8
40082274:	ffadb2        	movi	a11, 0xfffffdff
40082277:	117770        	slli	a7, a7, 9
4008227a:	1066b0        	and	a6, a6, a11
4008227d:	206670        	or	a6, a6, a7
40082280:	045162        	s16i	a6, a1, 8
40082283:	e72c      	movi.n	a7, 46
40082285:	509a77        	bne	a10, a7, 400822d9 <z_cbvprintf_impl+0x1d9>
40082288:	0105a2        	l8ui	a10, a5, 1
4008228b:	a72c      	movi.n	a7, 42
4008228d:	071a77        	beq	a10, a7, 40082298 <z_cbvprintf_impl+0x198>
40082290:	551b      	addi.n	a5, a5, 1
40082292:	960c      	movi.n	a6, 9
40082294:	000646        	j	400822b1 <z_cbvprintf_impl+0x1b1>
40082297:	00          	.byte 00
40082298:	00a422        	movi	a2, 0x400
4008229b:	206620        	or	a6, a6, a2
4008229e:	045162        	s16i	a6, a1, 8
400822a1:	552b      	addi.n	a5, a5, 2
400822a3:	000c86        	j	400822d9 <z_cbvprintf_impl+0x1d9>
400822a6:	a02220        	addx4	a2, a2, a2
400822a9:	9022a0        	addx2	a2, a2, a10
400822ac:	d0c222        	addi	a2, a2, -48
400822af:	075d      	mov.n	a5, a7
400822b1:	0005a2        	l8ui	a10, a5, 0
400822b4:	751b      	addi.n	a7, a5, 1
400822b6:	d0cab2        	addi	a11, a10, -48
400822b9:	e9b6b7        	bgeu	a6, a11, 400822a6 <z_cbvprintf_impl+0x1a6>
400822bc:	2168      	l32i.n	a6, a1, 8
400822be:	4129      	s32i.n	a2, a1, 16
400822c0:	046160        	extui	a6, a6, 1, 1
400822c3:	052f20        	extui	a2, a2, 31, 1
400822c6:	202620        	or	a2, a6, a2
400822c9:	041162        	l16ui	a6, a1, 8
400822cc:	d77c      	movi.n	a7, -3
400822ce:	222a      	add.n	a2, a2, a2
400822d0:	106670        	and	a6, a6, a7
400822d3:	202620        	or	a2, a6, a2
400822d6:	045122        	s16i	a2, a1, 8
400822d9:	000562        	l8ui	a6, a5, 0
400822dc:	6ca022        	movi	a2, 108
400822df:	511627        	beq	a6, a2, 40082334 <z_cbvprintf_impl+0x234>
400822e2:	163267        	bltu	a2, a6, 400822fc <z_cbvprintf_impl+0x1fc>
400822e5:	68a022        	movi	a2, 104
400822e8:	201627        	beq	a6, a2, 4008230c <z_cbvprintf_impl+0x20c>
400822eb:	6aa022        	movi	a2, 106
400822ee:	671627        	beq	a6, a2, 40082359 <z_cbvprintf_impl+0x259>
400822f1:	c24c      	movi.n	a2, 76
400822f3:	029627        	bne	a6, a2, 400822f9 <z_cbvprintf_impl+0x1f9>
400822f6:	002486        	j	4008238c <z_cbvprintf_impl+0x28c>
400822f9:	002786        	j	4008239b <z_cbvprintf_impl+0x29b>
400822fc:	74a022        	movi	a2, 116
400822ff:	761627        	beq	a6, a2, 40082379 <z_cbvprintf_impl+0x279>
40082302:	7aa022        	movi	a2, 122
40082305:	5f1627        	beq	a6, a2, 40082368 <z_cbvprintf_impl+0x268>
40082308:	0023c6        	j	4008239b <z_cbvprintf_impl+0x29b>
4008230b:	00          	.byte 00
4008230c:	0411a2        	l16ui	a10, a1, 8
4008230f:	f88321        	l32r	a2, 4008051c <_init_end+0x11c> (ffff87ff <_rtc_bss_end+0xafff87ff>)
40082312:	0105b2        	l8ui	a11, a5, 1
40082315:	170c      	movi.n	a7, 1
40082317:	1022a0        	and	a2, a2, a10
4008231a:	069b67        	bne	a11, a6, 40082324 <z_cbvprintf_impl+0x224>
4008231d:	116750        	slli	a6, a7, 11
40082320:	000906        	j	40082348 <z_cbvprintf_impl+0x248>
40082323:	00          	.byte 00
40082324:	116740        	slli	a6, a7, 12
40082327:	202260        	or	a2, a2, a6
4008232a:	045122        	s16i	a2, a1, 8
4008232d:	551b      	addi.n	a5, a5, 1
4008232f:	001a06        	j	4008239b <z_cbvprintf_impl+0x29b>
40082332:	00          	.byte 00
40082333:	00          	.byte 00
40082334:	041172        	l16ui	a7, a1, 8
40082337:	f87921        	l32r	a2, 4008051c <_init_end+0x11c> (ffff87ff <_rtc_bss_end+0xafff87ff>)
4008233a:	0105a2        	l8ui	a10, a5, 1
4008233d:	102270        	and	a2, a2, a7
40082340:	109a67        	bne	a10, a6, 40082354 <z_cbvprintf_impl+0x254>
40082343:	160c      	movi.n	a6, 1
40082345:	116630        	slli	a6, a6, 13
40082348:	202260        	or	a2, a2, a6
4008234b:	045122        	s16i	a2, a1, 8
4008234e:	552b      	addi.n	a5, a5, 2
40082350:	0011c6        	j	4008239b <z_cbvprintf_impl+0x29b>
40082353:	00          	.byte 00
40082354:	360c      	movi.n	a6, 3
40082356:	000a86        	j	40082384 <z_cbvprintf_impl+0x284>
40082359:	f87061        	l32r	a6, 4008051c <_init_end+0x11c> (ffff87ff <_rtc_bss_end+0xafff87ff>)
4008235c:	041122        	l16ui	a2, a1, 8
4008235f:	102260        	and	a2, a2, a6
40082362:	560c      	movi.n	a6, 5
40082364:	000706        	j	40082384 <z_cbvprintf_impl+0x284>
40082367:	00          	.byte 00
40082368:	f86d61        	l32r	a6, 4008051c <_init_end+0x11c> (ffff87ff <_rtc_bss_end+0xafff87ff>)
4008236b:	041122        	l16ui	a2, a1, 8
4008236e:	102260        	and	a2, a2, a6
40082371:	360c      	movi.n	a6, 3
40082373:	116640        	slli	a6, a6, 12
40082376:	ffeb46        	j	40082327 <z_cbvprintf_impl+0x227>
40082379:	f86861        	l32r	a6, 4008051c <_init_end+0x11c> (ffff87ff <_rtc_bss_end+0xafff87ff>)
4008237c:	041122        	l16ui	a2, a1, 8
4008237f:	102260        	and	a2, a2, a6
40082382:	760c      	movi.n	a6, 7
40082384:	116650        	slli	a6, a6, 11
40082387:	ffe706        	j	40082327 <z_cbvprintf_impl+0x227>
4008238a:	00          	.byte 00
4008238b:	00          	.byte 00
4008238c:	f86561        	l32r	a6, 40080520 <_init_end+0x120> (ffff87fd <_rtc_bss_end+0xafff87fd>)
4008238f:	041122        	l16ui	a2, a1, 8
40082392:	102260        	and	a2, a2, a6
40082395:	f86361        	l32r	a6, 40080524 <_init_end+0x124> (4002 <_image_irom_start+0x1ce>)
40082398:	ffe2c6        	j	40082327 <z_cbvprintf_impl+0x227>
4008239b:	251b      	addi.n	a2, a5, 1
4008239d:	136122        	s32i	a2, a1, 76
400823a0:	000522        	l8ui	a2, a5, 0
400823a3:	78a052        	movi	a5, 120
400823a6:	0b4122        	s8i	a2, a1, 11
400823a9:	02b527        	bgeu	a5, a2, 400823af <z_cbvprintf_impl+0x2af>
400823ac:	005946        	j	40082515 <z_cbvprintf_impl+0x415>
400823af:	6da052        	movi	a5, 109
400823b2:	243527        	bltu	a5, a2, 400823da <z_cbvprintf_impl+0x2da>
400823b5:	69a052        	movi	a5, 105
400823b8:	02b527        	bgeu	a5, a2, 400823be <z_cbvprintf_impl+0x2be>
400823bb:	005586        	j	40082515 <z_cbvprintf_impl+0x415>
400823be:	755c      	movi.n	a5, 87
400823c0:	3c3527        	bltu	a5, a2, 40082400 <z_cbvprintf_impl+0x300>
400823c3:	154c      	movi.n	a5, 65
400823c5:	029257        	bne	a2, a5, 400823cb <z_cbvprintf_impl+0x2cb>
400823c8:	003906        	j	400824b0 <z_cbvprintf_impl+0x3b0>
400823cb:	bbc222        	addi	a2, a2, -69
400823ce:	742020        	extui	a2, a2, 0, 8
400823d1:	0232b6        	bltui	a2, 3, 400823d7 <z_cbvprintf_impl+0x2d7>
400823d4:	004f46        	j	40082515 <z_cbvprintf_impl+0x415>
400823d7:	003546        	j	400824b0 <z_cbvprintf_impl+0x3b0>
400823da:	92c222        	addi	a2, a2, -110
400823dd:	150c      	movi.n	a5, 1
400823df:	401200        	ssl	a2
400823e2:	a12500        	sll	a2, a5
400823e5:	82a4a2        	movi	a10, 0x482
400823e8:	10a2a0        	and	a10, a2, a10
400823eb:	061a56        	bnez	a10, 40082450 <z_cbvprintf_impl+0x350>
400823ee:	472c      	movi.n	a7, 36
400823f0:	107270        	and	a7, a2, a7
400823f3:	0f5756        	bnez	a7, 400824ec <z_cbvprintf_impl+0x3ec>
400823f6:	02e207        	bbsi	a2, 0, 400823fc <z_cbvprintf_impl+0x2fc>
400823f9:	004606        	j	40082515 <z_cbvprintf_impl+0x415>
400823fc:	003146        	j	400824c5 <z_cbvprintf_impl+0x3c5>
400823ff:	00          	.byte 00
40082400:	a8c262        	addi	a6, a2, -88
40082403:	150c      	movi.n	a5, 1
40082405:	401600        	ssl	a6
40082408:	a17500        	sll	a7, a5
4008240b:	71a062        	movi	a6, 113
4008240e:	116670        	slli	a6, a6, 9
40082411:	020767        	bnone	a7, a6, 40082417 <z_cbvprintf_impl+0x317>
40082414:	002606        	j	400824b0 <z_cbvprintf_impl+0x3b0>
40082417:	f84461        	l32r	a6, 40080528 <_init_end+0x128> (801 <CONFIG_ISR_STACK_SIZE+0x1>)
4008241a:	4a8767        	bany	a7, a6, 40082468 <z_cbvprintf_impl+0x368>
4008241d:	122c      	movi.n	a2, 33
4008241f:	112240        	slli	a2, a2, 12
40082422:	028727        	bany	a7, a2, 40082428 <z_cbvprintf_impl+0x328>
40082425:	003b06        	j	40082515 <z_cbvprintf_impl+0x415>
40082428:	0a0122        	l8ui	a2, a1, 10
4008242b:	867c      	movi.n	a6, -8
4008242d:	102260        	and	a2, a2, a6
40082430:	202250        	or	a2, a2, a5
40082433:	041162        	l16ui	a6, a1, 8
40082436:	f83d71        	l32r	a7, 4008052c <_init_end+0x12c> (4000 <_image_irom_start+0x1cc>)
40082439:	0a4122        	s8i	a2, a1, 10
4008243c:	f20c      	movi.n	a2, 15
4008243e:	112250        	slli	a2, a2, 11
40082441:	102260        	and	a2, a2, a6
40082444:	f47070        	extui	a7, a7, 0, 16
40082447:	151277        	beq	a2, a7, 40082460 <z_cbvprintf_impl+0x360>
4008244a:	020c      	movi.n	a2, 0
4008244c:	0034c6        	j	40082523 <z_cbvprintf_impl+0x423>
4008244f:	00          	.byte 00
40082450:	0a0122        	l8ui	a2, a1, 10
40082453:	867c      	movi.n	a6, -8
40082455:	102260        	and	a2, a2, a6
40082458:	260c      	movi.n	a6, 2
4008245a:	202260        	or	a2, a2, a6
4008245d:	fff486        	j	40082433 <z_cbvprintf_impl+0x333>
40082460:	202560        	or	a2, a5, a6
40082463:	002d86        	j	4008251d <z_cbvprintf_impl+0x41d>
40082466:	00          	.byte 00
40082467:	00          	.byte 00
40082468:	0a0162        	l8ui	a6, a1, 10
4008246b:	877c      	movi.n	a7, -8
4008246d:	106670        	and	a6, a6, a7
40082470:	02a072        	movi	a7, 2
40082473:	206670        	or	a6, a6, a7
40082476:	0411a2        	l16ui	a10, a1, 8
40082479:	f82c71        	l32r	a7, 4008052c <_init_end+0x12c> (4000 <_image_irom_start+0x1cc>)
4008247c:	0a4162        	s8i	a6, a1, 10
4008247f:	0fa062        	movi	a6, 15
40082482:	116650        	slli	a6, a6, 11
40082485:	1066a0        	and	a6, a6, a10
40082488:	f47070        	extui	a7, a7, 0, 16
4008248b:	059677        	bne	a6, a7, 40082494 <z_cbvprintf_impl+0x394>
4008248e:	2055a0        	or	a5, a5, a10
40082491:	045152        	s16i	a5, a1, 8
40082494:	63a052        	movi	a5, 99
40082497:	af9257        	bne	a2, a5, 4008244a <z_cbvprintf_impl+0x34a>
4008249a:	041152        	l16ui	a5, a1, 8
4008249d:	f20c      	movi.n	a2, 15
4008249f:	112250        	slli	a2, a2, 11
400824a2:	105250        	and	a5, a2, a5
400824a5:	060c      	movi.n	a6, 0
400824a7:	120c      	movi.n	a2, 1
400824a9:	832650        	moveqz	a2, a6, a5
400824ac:	001706        	j	4008250c <z_cbvprintf_impl+0x40c>
400824af:	00          	.byte 00
400824b0:	0a0122        	l8ui	a2, a1, 10
400824b3:	857c      	movi.n	a5, -8
400824b5:	102250        	and	a2, a2, a5
400824b8:	450c      	movi.n	a5, 4
400824ba:	202250        	or	a2, a2, a5
400824bd:	0a4122        	s8i	a2, a1, 10
400824c0:	120c      	movi.n	a2, 1
400824c2:	001746        	j	40082523 <z_cbvprintf_impl+0x423>
400824c5:	0a0122        	l8ui	a2, a1, 10
400824c8:	867c      	movi.n	a6, -8
400824ca:	102260        	and	a2, a2, a6
400824cd:	360c      	movi.n	a6, 3
400824cf:	202260        	or	a2, a2, a6
400824d2:	0a4122        	s8i	a2, a1, 10
400824d5:	041162        	l16ui	a6, a1, 8
400824d8:	f20c      	movi.n	a2, 15
400824da:	112250        	slli	a2, a2, 11
400824dd:	102260        	and	a2, a2, a6
400824e0:	c0d262        	addmi	a6, a2, 0xffffc000
400824e3:	072d      	mov.n	a2, a7
400824e5:	832560        	moveqz	a2, a5, a6
400824e8:	000dc6        	j	40082523 <z_cbvprintf_impl+0x423>
400824eb:	00          	.byte 00
400824ec:	0a0122        	l8ui	a2, a1, 10
400824ef:	867c      	movi.n	a6, -8
400824f1:	102260        	and	a2, a2, a6
400824f4:	360c      	movi.n	a6, 3
400824f6:	202260        	or	a2, a2, a6
400824f9:	0a4122        	s8i	a2, a1, 10
400824fc:	041162        	l16ui	a6, a1, 8
400824ff:	f20c      	movi.n	a2, 15
40082501:	112250        	slli	a2, a2, 11
40082504:	106260        	and	a6, a2, a6
40082507:	0a2d      	mov.n	a2, a10
40082509:	932560        	movnez	a2, a5, a6
4008250c:	742020        	extui	a2, a2, 0, 8
4008250f:	000406        	j	40082523 <z_cbvprintf_impl+0x423>
40082512:	00          	.byte 00
40082513:	00          	.byte 00
40082514:	00          	.byte 00
40082515:	041122        	l16ui	a2, a1, 8
40082518:	150c      	movi.n	a5, 1
4008251a:	202250        	or	a2, a2, a5
4008251d:	045122        	s16i	a2, a1, 8
40082520:	ffc986        	j	4008244a <z_cbvprintf_impl+0x34a>
40082523:	2158      	l32i.n	a5, a1, 8
40082525:	d67c      	movi.n	a6, -3
40082527:	045150        	extui	a5, a5, 1, 1
4008252a:	202520        	or	a2, a5, a2
4008252d:	041152        	l16ui	a5, a1, 8
40082530:	042020        	extui	a2, a2, 0, 1
40082533:	222a      	add.n	a2, a2, a2
40082535:	105560        	and	a5, a5, a6
40082538:	202520        	or	a2, a5, a2
4008253b:	045122        	s16i	a2, a1, 8
4008253e:	041122        	l16ui	a2, a1, 8
40082541:	336287        	bbci	a2, 8, 40082578 <z_cbvprintf_impl+0x478>
40082544:	544b      	addi.n	a5, a4, 4
40082546:	821c      	movi.n	a2, 24
40082548:	0ca257        	bge	a2, a5, 40082558 <z_cbvprintf_impl+0x458>
4008254b:	012247        	blt	a2, a4, 40082550 <z_cbvprintf_impl+0x450>
4008254e:	452c      	movi.n	a5, 36
40082550:	f128      	l32i.n	a2, a1, 60
40082552:	054d      	mov.n	a4, a5
40082554:	000146        	j	4008255d <z_cbvprintf_impl+0x45d>
40082557:	00          	.byte 00
40082558:	102122        	l32i	a2, a1, 64
4008255b:	054d      	mov.n	a4, a5
4008255d:	225a      	add.n	a2, a2, a5
4008255f:	fcc222        	addi	a2, a2, -4
40082562:	0258      	l32i.n	a5, a2, 0
40082564:	0185d6        	bgez	a5, 40082580 <z_cbvprintf_impl+0x480>
40082567:	041122        	l16ui	a2, a1, 8
4008256a:	460c      	movi.n	a6, 4
4008256c:	202260        	or	a2, a2, a6
4008256f:	045122        	s16i	a2, a1, 8
40082572:	605050        	neg	a5, a5
40082575:	0001c6        	j	40082580 <z_cbvprintf_impl+0x480>
40082578:	f57c      	movi.n	a5, -1
4008257a:	026277        	bbci	a2, 7, 40082580 <z_cbvprintf_impl+0x480>
4008257d:	032152        	l32i	a5, a1, 12
40082580:	041162        	l16ui	a6, a1, 8
40082583:	3266a7        	bbci	a6, 10, 400825b9 <z_cbvprintf_impl+0x4b9>
40082586:	644b      	addi.n	a6, a4, 4
40082588:	821c      	movi.n	a2, 24
4008258a:	0ba267        	bge	a2, a6, 40082599 <z_cbvprintf_impl+0x499>
4008258d:	012247        	blt	a2, a4, 40082592 <z_cbvprintf_impl+0x492>
40082590:	462c      	movi.n	a6, 36
40082592:	f128      	l32i.n	a2, a1, 60
40082594:	064d      	mov.n	a4, a6
40082596:	000106        	j	4008259e <z_cbvprintf_impl+0x49e>
40082599:	102122        	l32i	a2, a1, 64
4008259c:	064d      	mov.n	a4, a6
4008259e:	226a      	add.n	a2, a2, a6
400825a0:	fcc222        	addi	a2, a2, -4
400825a3:	0228      	l32i.n	a2, a2, 0
400825a5:	0172d6        	bgez	a2, 400825c0 <z_cbvprintf_impl+0x4c0>
400825a8:	041122        	l16ui	a2, a1, 8
400825ab:	ffad62        	movi	a6, 0xfffffdff
400825ae:	102260        	and	a2, a2, a6
400825b1:	045122        	s16i	a2, a1, 8
400825b4:	f27c      	movi.n	a2, -1
400825b6:	000186        	j	400825c0 <z_cbvprintf_impl+0x4c0>
400825b9:	f27c      	movi.n	a2, -1
400825bb:	016697        	bbci	a6, 9, 400825c0 <z_cbvprintf_impl+0x4c0>
400825be:	4128      	l32i.n	a2, a1, 16
400825c0:	21f8      	l32i.n	a15, a1, 8
400825c2:	060c      	movi.n	a6, 0
400825c4:	3169      	s32i.n	a6, a1, 12
400825c6:	4169      	s32i.n	a6, a1, 16
400825c8:	2570f0        	extui	a7, a15, 16, 3
400825cb:	346bf0        	extui	a6, a15, 11, 4
400825ce:	021726        	beqi	a7, 1, 400825d4 <z_cbvprintf_impl+0x4d4>
400825d1:	002806        	j	40082675 <z_cbvprintf_impl+0x575>
400825d4:	025666        	bnei	a6, 5, 400825da <z_cbvprintf_impl+0x4da>
400825d7:	004646        	j	400826f4 <z_cbvprintf_impl+0x5f4>
400825da:	0b66f6        	bgeui	a6, 6, 400825e9 <z_cbvprintf_impl+0x4e9>
400825dd:	353626        	beqi	a6, 3, 40082616 <z_cbvprintf_impl+0x516>
400825e0:	024666        	bnei	a6, 4, 400825e6 <z_cbvprintf_impl+0x4e6>
400825e3:	004346        	j	400826f4 <z_cbvprintf_impl+0x5f4>
400825e6:	0001c6        	j	400825f1 <z_cbvprintf_impl+0x4f1>
400825e9:	76ab      	addi.n	a7, a6, 10
400825eb:	347070        	extui	a7, a7, 0, 4
400825ee:	4027b6        	bltui	a7, 2, 40082632 <z_cbvprintf_impl+0x532>
400825f1:	a44b      	addi.n	a10, a4, 4
400825f3:	8b1c      	movi.n	a11, 24
400825f5:	102172        	l32i	a7, a1, 64
400825f8:	06aba7        	bge	a11, a10, 40082602 <z_cbvprintf_impl+0x502>
400825fb:	012b47        	blt	a11, a4, 40082600 <z_cbvprintf_impl+0x500>
400825fe:	4a2c      	movi.n	a10, 36
40082600:	f178      	l32i.n	a7, a1, 60
40082602:	77aa      	add.n	a7, a7, a10
40082604:	fcc772        	addi	a7, a7, -4
40082607:	0778      	l32i.n	a7, a7, 0
40082609:	318f70        	srai	a8, a7, 31
4008260c:	0179      	s32i.n	a7, a1, 0
4008260e:	1189      	s32i.n	a8, a1, 4
40082610:	4c1666        	bnei	a6, 1, 40082660 <z_cbvprintf_impl+0x560>
40082613:	001006        	j	40082657 <z_cbvprintf_impl+0x557>
40082616:	a44b      	addi.n	a10, a4, 4
40082618:	8b1c      	movi.n	a11, 24
4008261a:	102172        	l32i	a7, a1, 64
4008261d:	07aba7        	bge	a11, a10, 40082628 <z_cbvprintf_impl+0x528>
40082620:	022b47        	blt	a11, a4, 40082626 <z_cbvprintf_impl+0x526>
40082623:	24a0a2        	movi	a10, 36
40082626:	f178      	l32i.n	a7, a1, 60
40082628:	77aa      	add.n	a7, a7, a10
4008262a:	fcc772        	addi	a7, a7, -4
4008262d:	0778      	l32i.n	a7, a7, 0
4008262f:	000e06        	j	4008266b <z_cbvprintf_impl+0x56b>
40082632:	744b      	addi.n	a7, a4, 4
40082634:	8a1c      	movi.n	a10, 24
40082636:	0eaa77        	bge	a10, a7, 40082648 <z_cbvprintf_impl+0x548>
40082639:	012a47        	blt	a10, a4, 4008263e <z_cbvprintf_impl+0x53e>
4008263c:	472c      	movi.n	a7, 36
4008263e:	f148      	l32i.n	a4, a1, 60
40082640:	847a      	add.n	a8, a4, a7
40082642:	fcc882        	addi	a8, a8, -4
40082645:	000106        	j	4008264d <z_cbvprintf_impl+0x54d>
40082648:	1021a2        	l32i	a10, a1, 64
4008264b:	8a4a      	add.n	a8, a10, a4
4008264d:	0888      	l32i.n	a8, a8, 0
4008264f:	0189      	s32i.n	a8, a1, 0
40082651:	318f80        	srai	a8, a8, 31
40082654:	002186        	j	400826de <z_cbvprintf_impl+0x5de>
40082657:	000172        	l8ui	a7, a1, 0
4008265a:	237700        	sext	a7, a7, 7
4008265d:	000286        	j	4008266b <z_cbvprintf_impl+0x56b>
40082660:	042626        	beqi	a6, 2, 40082668 <z_cbvprintf_impl+0x568>
40082663:	0053c6        	j	400827b6 <z_cbvprintf_impl+0x6b6>
40082666:	00          	.byte 00
40082667:	00          	.byte 00
40082668:	237780        	sext	a7, a7, 15
4008266b:	0179      	s32i.n	a7, a1, 0
4008266d:	317f70        	srai	a7, a7, 31
40082670:	1179      	s32i.n	a7, a1, 4
40082672:	005006        	j	400827b6 <z_cbvprintf_impl+0x6b6>
40082675:	022726        	beqi	a7, 2, 4008267b <z_cbvprintf_impl+0x57b>
40082678:	003706        	j	40082758 <z_cbvprintf_impl+0x658>
4008267b:	755626        	beqi	a6, 5, 400826f4 <z_cbvprintf_impl+0x5f4>
4008267e:	0866f6        	bgeui	a6, 6, 4008268a <z_cbvprintf_impl+0x58a>
40082681:	333626        	beqi	a6, 3, 400826b8 <z_cbvprintf_impl+0x5b8>
40082684:	6c4626        	beqi	a6, 4, 400826f4 <z_cbvprintf_impl+0x5f4>
40082687:	000286        	j	40082695 <z_cbvprintf_impl+0x595>
4008268a:	76ab      	addi.n	a7, a6, 10
4008268c:	347070        	extui	a7, a7, 0, 4
4008268f:	0227f6        	bgeui	a7, 2, 40082695 <z_cbvprintf_impl+0x595>
40082692:	0021c6        	j	4008271d <z_cbvprintf_impl+0x61d>
40082695:	744b      	addi.n	a7, a4, 4
40082697:	8b1c      	movi.n	a11, 24
40082699:	1021a2        	l32i	a10, a1, 64
4008269c:	06ab77        	bge	a11, a7, 400826a6 <z_cbvprintf_impl+0x5a6>
4008269f:	012b47        	blt	a11, a4, 400826a4 <z_cbvprintf_impl+0x5a4>
400826a2:	472c      	movi.n	a7, 36
400826a4:	f1a8      	l32i.n	a10, a1, 60
400826a6:	aa7a      	add.n	a10, a10, a7
400826a8:	fccaa2        	addi	a10, a10, -4
400826ab:	0a88      	l32i.n	a8, a10, 0
400826ad:	0a0c      	movi.n	a10, 0
400826af:	021666        	bnei	a6, 1, 400826b5 <z_cbvprintf_impl+0x5b5>
400826b2:	002086        	j	40082738 <z_cbvprintf_impl+0x638>
400826b5:	002346        	j	40082746 <z_cbvprintf_impl+0x646>
400826b8:	0b01b2        	l8ui	a11, a1, 11
400826bb:	63a0a2        	movi	a10, 99
400826be:	744b      	addi.n	a7, a4, 4
400826c0:	209ba7        	bne	a11, a10, 400826e4 <z_cbvprintf_impl+0x5e4>
400826c3:	8b1c      	movi.n	a11, 24
400826c5:	1021a2        	l32i	a10, a1, 64
400826c8:	06ab77        	bge	a11, a7, 400826d2 <z_cbvprintf_impl+0x5d2>
400826cb:	012b47        	blt	a11, a4, 400826d0 <z_cbvprintf_impl+0x5d0>
400826ce:	472c      	movi.n	a7, 36
400826d0:	f1a8      	l32i.n	a10, a1, 60
400826d2:	aa7a      	add.n	a10, a10, a7
400826d4:	fccaa2        	addi	a10, a10, -4
400826d7:	001a82        	l16ui	a8, a10, 0
400826da:	0189      	s32i.n	a8, a1, 0
400826dc:	080c      	movi.n	a8, 0
400826de:	1189      	s32i.n	a8, a1, 4
400826e0:	0016c6        	j	4008273f <z_cbvprintf_impl+0x63f>
400826e3:	00          	.byte 00
400826e4:	4b1c      	movi.n	a11, 20
400826e6:	1021a2        	l32i	a10, a1, 64
400826e9:	41ab47        	bge	a11, a4, 4008272e <z_cbvprintf_impl+0x62e>
400826ec:	8a1c      	movi.n	a10, 24
400826ee:	3a2a47        	blt	a10, a4, 4008272c <z_cbvprintf_impl+0x62c>
400826f1:	000d46        	j	4008272a <z_cbvprintf_impl+0x62a>
400826f4:	a47b      	addi.n	a10, a4, 7
400826f6:	877c      	movi.n	a7, -8
400826f8:	10aa70        	and	a10, a10, a7
400826fb:	4a8b      	addi.n	a4, a10, 8
400826fd:	8b1c      	movi.n	a11, 24
400826ff:	102172        	l32i	a7, a1, 64
40082702:	06ab47        	bge	a11, a4, 4008270c <z_cbvprintf_impl+0x60c>
40082705:	012ba7        	blt	a11, a10, 4008270a <z_cbvprintf_impl+0x60a>
40082708:	842c      	movi.n	a4, 40
4008270a:	f178      	l32i.n	a7, a1, 60
4008270c:	774a      	add.n	a7, a7, a4
4008270e:	f8c772        	addi	a7, a7, -8
40082711:	07a8      	l32i.n	a10, a7, 0
40082713:	17b8      	l32i.n	a11, a7, 4
40082715:	01a9      	s32i.n	a10, a1, 0
40082717:	11b9      	s32i.n	a11, a1, 4
40082719:	0026c6        	j	400827b8 <z_cbvprintf_impl+0x6b8>
4008271c:	00          	.byte 00
4008271d:	744b      	addi.n	a7, a4, 4
4008271f:	8b1c      	movi.n	a11, 24
40082721:	1021a2        	l32i	a10, a1, 64
40082724:	06ab77        	bge	a11, a7, 4008272e <z_cbvprintf_impl+0x62e>
40082727:	012b47        	blt	a11, a4, 4008272c <z_cbvprintf_impl+0x62c>
4008272a:	472c      	movi.n	a7, 36
4008272c:	f1a8      	l32i.n	a10, a1, 60
4008272e:	aa7a      	add.n	a10, a10, a7
40082730:	fccaa2        	addi	a10, a10, -4
40082733:	0a88      	l32i.n	a8, a10, 0
40082735:	ffe846        	j	400826da <z_cbvprintf_impl+0x5da>
40082738:	748080        	extui	a8, a8, 0, 8
4008273b:	0189      	s32i.n	a8, a1, 0
4008273d:	11a9      	s32i.n	a10, a1, 4
4008273f:	074d      	mov.n	a4, a7
40082741:	001cc6        	j	400827b8 <z_cbvprintf_impl+0x6b8>
40082744:	00          	.byte 00
40082745:	00          	.byte 00
40082746:	0189      	s32i.n	a8, a1, 0
40082748:	11a9      	s32i.n	a10, a1, 4
4008274a:	022626        	beqi	a6, 2, 40082750 <z_cbvprintf_impl+0x650>
4008274d:	fffb86        	j	4008273f <z_cbvprintf_impl+0x63f>
40082750:	f48080        	extui	a8, a8, 0, 16
40082753:	0189      	s32i.n	a8, a1, 0
40082755:	fff986        	j	4008273f <z_cbvprintf_impl+0x63f>
40082758:	3c4766        	bnei	a7, 4, 40082798 <z_cbvprintf_impl+0x698>
4008275b:	a47b      	addi.n	a10, a4, 7
4008275d:	877c      	movi.n	a7, -8
4008275f:	10aa70        	and	a10, a10, a7
40082762:	4a8b      	addi.n	a4, a10, 8
40082764:	0d8666        	bnei	a6, 8, 40082775 <z_cbvprintf_impl+0x675>
40082767:	8b1c      	movi.n	a11, 24
40082769:	102172        	l32i	a7, a1, 64
4008276c:	16ab47        	bge	a11, a4, 40082786 <z_cbvprintf_impl+0x686>
4008276f:	112ba7        	blt	a11, a10, 40082784 <z_cbvprintf_impl+0x684>
40082772:	000306        	j	40082782 <z_cbvprintf_impl+0x682>
40082775:	0b1c      	movi.n	a11, 16
40082777:	102172        	l32i	a7, a1, 64
4008277a:	08aba7        	bge	a11, a10, 40082786 <z_cbvprintf_impl+0x686>
4008277d:	871c      	movi.n	a7, 24
4008277f:	0127a7        	blt	a7, a10, 40082784 <z_cbvprintf_impl+0x684>
40082782:	842c      	movi.n	a4, 40
40082784:	f178      	l32i.n	a7, a1, 60
40082786:	774a      	add.n	a7, a7, a4
40082788:	f8c772        	addi	a7, a7, -8
4008278b:	07a8      	l32i.n	a10, a7, 0
4008278d:	17b8      	l32i.n	a11, a7, 4
4008278f:	01a9      	s32i.n	a10, a1, 0
40082791:	11b9      	s32i.n	a11, a1, 4
40082793:	000846        	j	400827b8 <z_cbvprintf_impl+0x6b8>
40082796:	00          	.byte 00
40082797:	00          	.byte 00
40082798:	1c3766        	bnei	a7, 3, 400827b8 <z_cbvprintf_impl+0x6b8>
4008279b:	a44b      	addi.n	a10, a4, 4
4008279d:	8b1c      	movi.n	a11, 24
4008279f:	102172        	l32i	a7, a1, 64
400827a2:	06aba7        	bge	a11, a10, 400827ac <z_cbvprintf_impl+0x6ac>
400827a5:	012b47        	blt	a11, a4, 400827aa <z_cbvprintf_impl+0x6aa>
400827a8:	4a2c      	movi.n	a10, 36
400827aa:	f178      	l32i.n	a7, a1, 60
400827ac:	77aa      	add.n	a7, a7, a10
400827ae:	fcc772        	addi	a7, a7, -4
400827b1:	0778      	l32i.n	a7, a7, 0
400827b3:	006172        	s32i	a7, a1, 0
400827b6:	0a4d      	mov.n	a4, a10
400827b8:	14f0f0        	extui	a15, a15, 0, 2
400827bb:	017f16        	beqz	a15, 400827d6 <z_cbvprintf_impl+0x6d6>
400827be:	1321d2        	l32i	a13, a1, 76
400827c1:	1221b2        	l32i	a11, a1, 72
400827c4:	1121a2        	l32i	a10, a1, 68
400827c7:	20c990        	or	a12, a9, a9
400827ca:	002ba5        	call8	40082a84 <outs>
400827cd:	2aca96        	bltz	a10, 40082a7d <z_cbvprintf_impl+0x97d>
400827d0:	8033a0        	add	a3, a3, a10
400827d3:	00a646        	j	40082a70 <z_cbvprintf_impl+0x970>
400827d6:	0b01a2        	l8ui	a10, a1, 11
400827d9:	78a072        	movi	a7, 120
400827dc:	02b7a7        	bgeu	a7, a10, 400827e2 <z_cbvprintf_impl+0x6e2>
400827df:	00a346        	j	40082a70 <z_cbvprintf_impl+0x970>
400827e2:	62a072        	movi	a7, 98
400827e5:	0f37a7        	bltu	a7, a10, 400827f8 <z_cbvprintf_impl+0x6f8>
400827e8:	562c      	movi.n	a6, 37
400827ea:	231a67        	beq	a10, a6, 40082811 <z_cbvprintf_impl+0x711>
400827ed:	865c      	movi.n	a6, 88
400827ef:	029a67        	bne	a10, a6, 400827f5 <z_cbvprintf_impl+0x6f5>
400827f2:	002486        	j	40082888 <z_cbvprintf_impl+0x788>
400827f5:	009dc6        	j	40082a70 <z_cbvprintf_impl+0x970>
400827f8:	9dcaa2        	addi	a10, a10, -99
400827fb:	74a0a0        	extui	a10, a10, 0, 8
400827fe:	571c      	movi.n	a7, 21
40082800:	02b7a7        	bgeu	a7, a10, 40082806 <z_cbvprintf_impl+0x706>
40082803:	009a46        	j	40082a70 <z_cbvprintf_impl+0x970>
40082806:	f74a71        	l32r	a7, 40080530 <_init_end+0x130> (3ffb0188 <timeout_list+0x4c>)
40082809:	a0aa70        	addx4	a10, a10, a7
4008280c:	0a78      	l32i.n	a7, a10, 0
4008280e:	0007a0        	jx	a7
40082811:	1221b2        	l32i	a11, a1, 72
40082814:	112122        	l32i	a2, a1, 68
40082817:	0002e0        	callx8	a2
4008281a:	25fa96        	bltz	a10, 40082a7d <z_cbvprintf_impl+0x97d>
4008281d:	331b      	addi.n	a3, a3, 1
4008281f:	009346        	j	40082a70 <z_cbvprintf_impl+0x970>
40082822:	002162        	l32i	a6, a1, 0
40082825:	00b296        	bltz	a2, 40082834 <z_cbvprintf_impl+0x734>
40082828:	20b220        	or	a11, a2, a2
4008282b:	20a660        	or	a10, a6, a6
4008282e:	0031e5        	call8	40082b4c <strnlen>
40082831:	000146        	j	4008283a <z_cbvprintf_impl+0x73a>
40082834:	20a660        	or	a10, a6, a6
40082837:	002fe5        	call8	40082b34 <strlen>
4008283a:	8076a0        	add	a7, a6, a10
4008283d:	00a0f2        	movi	a15, 0
40082840:	108656        	bnez	a6, 4008294c <z_cbvprintf_impl+0x84c>
40082843:	008a46        	j	40082a70 <z_cbvprintf_impl+0x970>
40082846:	0128      	l32i.n	a2, a1, 0
40082848:	18c162        	addi	a6, a1, 24
4008284b:	184122        	s8i	a2, a1, 24
4008284e:	19c172        	addi	a7, a1, 25
40082851:	0f0c      	movi.n	a15, 0
40082853:	1a0c      	movi.n	a10, 1
40082855:	003cc6        	j	4008294c <z_cbvprintf_impl+0x84c>
40082858:	041162        	l16ui	a6, a1, 8
4008285b:	bf2c      	movi.n	a15, 43
4008285d:	05e637        	bbsi	a6, 3, 40082866 <z_cbvprintf_impl+0x766>
40082860:	046460        	extui	a6, a6, 4, 1
40082863:	11f6b0        	slli	a15, a6, 5
40082866:	1168      	l32i.n	a6, a1, 4
40082868:	01a8      	l32i.n	a10, a1, 0
4008286a:	01a6d6        	bgez	a6, 40082888 <z_cbvprintf_impl+0x788>
4008286d:	60a0a0        	neg	a10, a10
40082870:	170c      	movi.n	a7, 1
40082872:	0b0c      	movi.n	a11, 0
40082874:	837ba0        	moveqz	a7, a11, a10
40082877:	606060        	neg	a6, a6
4008287a:	c06670        	sub	a6, a6, a7
4008287d:	01a9      	s32i.n	a10, a1, 0
4008287f:	1169      	s32i.n	a6, a1, 4
40082881:	df2c      	movi.n	a15, 45
40082883:	000046        	j	40082888 <z_cbvprintf_impl+0x788>
40082886:	0f0c      	movi.n	a15, 0
40082888:	0021a2        	l32i	a10, a1, 0
4008288b:	0121b2        	l32i	a11, a1, 4
4008288e:	1661f2        	s32i	a15, a1, 88
40082891:	2ec1e2        	addi	a14, a1, 46
40082894:	18c1d2        	addi	a13, a1, 24
40082897:	08c1c2        	addi	a12, a1, 8
4008289a:	ff7ae5        	call8	40082048 <encode_uint>
4008289d:	1621f2        	l32i	a15, a1, 88
400828a0:	0a6d      	mov.n	a6, a10
400828a2:	086296        	bltz	a2, 4008292c <z_cbvprintf_impl+0x82c>
400828a5:	0411a2        	l16ui	a10, a1, 8
400828a8:	bfafb2        	movi	a11, -65
400828ab:	2ec172        	addi	a7, a1, 46
400828ae:	10aab0        	and	a10, a10, a11
400828b1:	c07760        	sub	a7, a7, a6
400828b4:	0451a2        	s16i	a10, a1, 8
400828b7:	71b727        	bgeu	a7, a2, 4008292c <z_cbvprintf_impl+0x82c>
400828ba:	c07270        	sub	a7, a2, a7
400828bd:	3179      	s32i.n	a7, a1, 12
400828bf:	001a46        	j	4008292c <z_cbvprintf_impl+0x82c>
400828c2:	0021a2        	l32i	a10, a1, 0
400828c5:	077a16        	beqz	a10, 40082940 <z_cbvprintf_impl+0x840>
400828c8:	2ec172        	addi	a7, a1, 46
400828cb:	00a0b2        	movi	a11, 0
400828ce:	20e770        	or	a14, a7, a7
400828d1:	18c1d2        	addi	a13, a1, 24
400828d4:	c18b      	addi.n	a12, a1, 8
400828d6:	ff7725        	call8	40082048 <encode_uint>
400828d9:	0a6d      	mov.n	a6, a10
400828db:	0511a2        	l16ui	a10, a1, 10
400828de:	efa0b2        	movi	a11, 239
400828e1:	10aab0        	and	a10, a10, a11
400828e4:	81a7b2        	movi	a11, 0x781
400828e7:	11bbc0        	slli	a11, a11, 4
400828ea:	20aab0        	or	a10, a10, a11
400828ed:	0551a2        	s16i	a10, a1, 10
400828f0:	0f0c      	movi.n	a15, 0
400828f2:	afa2f7        	bge	a2, a15, 400828a5 <z_cbvprintf_impl+0x7a5>
400828f5:	c0a760        	sub	a10, a7, a6
400828f8:	5096f7        	bne	a6, a15, 4008294c <z_cbvprintf_impl+0x84c>
400828fb:	005c46        	j	40082a70 <z_cbvprintf_impl+0x970>
400828fe:	0128      	l32i.n	a2, a1, 0
40082900:	0286b6        	bltui	a6, 8, 40082906 <z_cbvprintf_impl+0x806>
40082903:	005a46        	j	40082a70 <z_cbvprintf_impl+0x970>
40082906:	f70b51        	l32r	a5, 40080534 <_init_end+0x134> (3ffb01e0 <timeout_list+0xa4>)
40082909:	a06650        	addx4	a6, a6, a5
4008290c:	0658      	l32i.n	a5, a6, 0
4008290e:	0005a0        	jx	a5
40082911:	004232        	s8i	a3, a2, 0
40082914:	005606        	j	40082a70 <z_cbvprintf_impl+0x970>
40082917:	005232        	s16i	a3, a2, 0
4008291a:	005486        	j	40082a70 <z_cbvprintf_impl+0x970>
4008291d:	315f30        	srai	a5, a3, 31
40082920:	0239      	s32i.n	a3, a2, 0
40082922:	1259      	s32i.n	a5, a2, 4
40082924:	005206        	j	40082a70 <z_cbvprintf_impl+0x970>
40082927:	0239      	s32i.n	a3, a2, 0
40082929:	0050c6        	j	40082a70 <z_cbvprintf_impl+0x970>
4008292c:	140616        	beqz	a6, 40082a70 <z_cbvprintf_impl+0x970>
4008292f:	2ec122        	addi	a2, a1, 46
40082932:	c0a260        	sub	a10, a2, a6
40082935:	027d      	mov.n	a7, a2
40082937:	1f9c      	beqz.n	a15, 4008294c <z_cbvprintf_impl+0x84c>
40082939:	aa1b      	addi.n	a10, a10, 1
4008293b:	000346        	j	4008294c <z_cbvprintf_impl+0x84c>
4008293e:	00          	.byte 00
4008293f:	00          	.byte 00
40082940:	f6f561        	l32r	a6, 40080514 <_init_end+0x114> (3ffb0200 <timeout_list+0xc4>)
40082943:	f6f571        	l32r	a7, 40080518 <_init_end+0x118> (3ffb0205 <timeout_list+0xc9>)
40082946:	20faa0        	or	a15, a10, a10
40082949:	05a0a2        	movi	a10, 5
4008294c:	0a01b2        	l8ui	a11, a1, 10
4008294f:	021c      	movi.n	a2, 16
40082951:	102b20        	and	a2, a11, a2
40082954:	146122        	s32i	a2, a1, 80
40082957:	528c      	beqz.n	a2, 40082960 <z_cbvprintf_impl+0x860>
40082959:	aa2b      	addi.n	a10, a10, 2
4008295b:	000186        	j	40082965 <z_cbvprintf_impl+0x865>
4008295e:	00          	.byte 00
4008295f:	00          	.byte 00
40082960:	016b37        	bbci	a11, 3, 40082965 <z_cbvprintf_impl+0x865>
40082963:	aa1b      	addi.n	a10, a10, 1
40082965:	3128      	l32i.n	a2, a1, 12
40082967:	aa2a      	add.n	a10, a10, a2
40082969:	036b67        	bbci	a11, 6, 40082970 <z_cbvprintf_impl+0x870>
4008296c:	41b8      	l32i.n	a11, a1, 16
4008296e:	aaba      	add.n	a10, a10, a11
40082970:	6c15a6        	blti	a5, 1, 400829e0 <z_cbvprintf_impl+0x8e0>
40082973:	21c8      	l32i.n	a12, a1, 8
40082975:	c055a0        	sub	a5, a5, a10
40082978:	04c2c0        	extui	a12, a12, 2, 1
4008297b:	061c56        	bnez	a12, 400829e0 <z_cbvprintf_impl+0x8e0>
4008297e:	0411a2        	l16ui	a10, a1, 8
40082981:	436a67        	bbci	a10, 6, 400829c8 <z_cbvprintf_impl+0x8c8>
40082984:	046f16        	beqz	a15, 400829ce <z_cbvprintf_impl+0x8ce>
40082987:	1221b2        	l32i	a11, a1, 72
4008298a:	112182        	l32i	a8, a1, 68
4008298d:	1761c2        	s32i	a12, a1, 92
40082990:	0fad      	mov.n	a10, a15
40082992:	0008e0        	callx8	a8
40082995:	1721c2        	l32i	a12, a1, 92
40082998:	0e1a96        	bltz	a10, 40082a7d <z_cbvprintf_impl+0x97d>
4008299b:	331b      	addi.n	a3, a3, 1
4008299d:	0d3c      	movi.n	a13, 48
4008299f:	0cfd      	mov.n	a15, a12
400829a1:	000ac6        	j	400829d0 <z_cbvprintf_impl+0x8d0>
400829a4:	1221b2        	l32i	a11, a1, 72
400829a7:	112182        	l32i	a8, a1, 68
400829aa:	0dad      	mov.n	a10, a13
400829ac:	1761c2        	s32i	a12, a1, 92
400829af:	1561d2        	s32i	a13, a1, 84
400829b2:	1661f2        	s32i	a15, a1, 88
400829b5:	0008e0        	callx8	a8
400829b8:	1721c2        	l32i	a12, a1, 92
400829bb:	1521d2        	l32i	a13, a1, 84
400829be:	1621f2        	l32i	a15, a1, 88
400829c1:	00dad6        	bgez	a10, 400829d2 <z_cbvprintf_impl+0x8d2>
400829c4:	002d46        	j	40082a7d <z_cbvprintf_impl+0x97d>
400829c7:	00          	.byte 00
400829c8:	0d2c      	movi.n	a13, 32
400829ca:	000086        	j	400829d0 <z_cbvprintf_impl+0x8d0>
400829cd:	00          	.byte 00
400829ce:	0d3c      	movi.n	a13, 48
400829d0:	05cd      	mov.n	a12, a5
400829d2:	0cad      	mov.n	a10, a12
400829d4:	cc0b      	addi.n	a12, a12, -1
400829d6:	ca1ae6        	bgei	a10, 1, 400829a4 <z_cbvprintf_impl+0x8a4>
400829d9:	953a      	add.n	a9, a5, a3
400829db:	c039a0        	sub	a3, a9, a10
400829de:	0c5d      	mov.n	a5, a12
400829e0:	ef8c      	beqz.n	a15, 400829f2 <z_cbvprintf_impl+0x8f2>
400829e2:	1221b2        	l32i	a11, a1, 72
400829e5:	112182        	l32i	a8, a1, 68
400829e8:	0fad      	mov.n	a10, a15
400829ea:	0008e0        	callx8	a8
400829ed:	08ca96        	bltz	a10, 40082a7d <z_cbvprintf_impl+0x97d>
400829f0:	331b      	addi.n	a3, a3, 1
400829f2:	21a8      	l32i.n	a10, a1, 8
400829f4:	02fa47        	bbsi	a10, 20, 400829fa <z_cbvprintf_impl+0x8fa>
400829f7:	0f7a37        	bbci	a10, 19, 40082a0a <z_cbvprintf_impl+0x90a>
400829fa:	1221b2        	l32i	a11, a1, 72
400829fd:	112182        	l32i	a8, a1, 68
40082a00:	0a3c      	movi.n	a10, 48
40082a02:	0008e0        	callx8	a8
40082a05:	074a96        	bltz	a10, 40082a7d <z_cbvprintf_impl+0x97d>
40082a08:	331b      	addi.n	a3, a3, 1
40082a0a:	142182        	l32i	a8, a1, 80
40082a0d:	78ac      	beqz.n	a8, 40082a38 <z_cbvprintf_impl+0x938>
40082a0f:	1221b2        	l32i	a11, a1, 72
40082a12:	0b01a2        	l8ui	a10, a1, 11
40082a15:	112182        	l32i	a8, a1, 68
40082a18:	0008e0        	callx8	a8
40082a1b:	05ea96        	bltz	a10, 40082a7d <z_cbvprintf_impl+0x97d>
40082a1e:	331b      	addi.n	a3, a3, 1
40082a20:	000506        	j	40082a38 <z_cbvprintf_impl+0x938>
40082a23:	00          	.byte 00
40082a24:	00          	.byte 00
40082a25:	1221b2        	l32i	a11, a1, 72
40082a28:	112182        	l32i	a8, a1, 68
40082a2b:	0a3c      	movi.n	a10, 48
40082a2d:	0008e0        	callx8	a8
40082a30:	049a96        	bltz	a10, 40082a7d <z_cbvprintf_impl+0x97d>
40082a33:	331b      	addi.n	a3, a3, 1
40082a35:	000086        	j	40082a3b <z_cbvprintf_impl+0x93b>
40082a38:	802230        	add	a2, a2, a3
40082a3b:	c0a230        	sub	a10, a2, a3
40082a3e:	e31ae6        	bgei	a10, 1, 40082a25 <z_cbvprintf_impl+0x925>
40082a41:	1221b2        	l32i	a11, a1, 72
40082a44:	1121a2        	l32i	a10, a1, 68
40082a47:	20d770        	or	a13, a7, a7
40082a4a:	20c660        	or	a12, a6, a6
40082a4d:	000365        	call8	40082a84 <outs>
40082a50:	029a96        	bltz	a10, 40082a7d <z_cbvprintf_impl+0x97d>
40082a53:	3a3a      	add.n	a3, a10, a3
40082a55:	553a      	add.n	a5, a5, a3
40082a57:	0003c6        	j	40082a6a <z_cbvprintf_impl+0x96a>
40082a5a:	1221b2        	l32i	a11, a1, 72
40082a5d:	112122        	l32i	a2, a1, 68
40082a60:	0a2c      	movi.n	a10, 32
40082a62:	0002e0        	callx8	a2
40082a65:	014a96        	bltz	a10, 40082a7d <z_cbvprintf_impl+0x97d>
40082a68:	331b      	addi.n	a3, a3, 1
40082a6a:	c02530        	sub	a2, a5, a3
40082a6d:	e912e6        	bgei	a2, 1, 40082a5a <z_cbvprintf_impl+0x95a>
40082a70:	132192        	l32i	a9, a1, 76
40082a73:	000922        	l8ui	a2, a9, 0
40082a76:	128c      	beqz.n	a2, 40082a7b <z_cbvprintf_impl+0x97b>
40082a78:	fda846        	j	4008211d <z_cbvprintf_impl+0x1d>
40082a7b:	03ad      	mov.n	a10, a3
40082a7d:	0a2d      	mov.n	a2, a10
40082a7f:	f01d      	retw.n
40082a81:	000000        	ill

40082a84 <outs>:
40082a84:	004136        	entry	a1, 32
40082a87:	046d      	mov.n	a6, a4
40082a89:	000306        	j	40082a99 <outs+0x15>
40082a8c:	0006a2        	l8ui	a10, a6, 0
40082a8f:	03bd      	mov.n	a11, a3
40082a91:	0002e0        	callx8	a2
40082a94:	661b      	addi.n	a6, a6, 1
40082a96:	013a96        	bltz	a10, 40082aad <outs+0x29>
40082a99:	ef3657        	bltu	a6, a5, 40082a8c <outs+0x8>
40082a9c:	458c      	beqz.n	a5, 40082aa4 <outs+0x20>
40082a9e:	c0a640        	sub	a10, a6, a4
40082aa1:	000206        	j	40082aad <outs+0x29>
40082aa4:	000682        	l8ui	a8, a6, 0
40082aa7:	fe1856        	bnez	a8, 40082a8c <outs+0x8>
40082aaa:	fffc06        	j	40082a9e <outs+0x1a>
40082aad:	0a2d      	mov.n	a2, a10
40082aaf:	f01d      	retw.n
40082ab1:	000000        	ill

40082ab4 <char_out>:
40082ab4:	004136        	entry	a1, 32
40082ab7:	f6a081        	l32r	a8, 40080538 <_init_end+0x138> (3ffb0000 <_char_out>)
40082aba:	02ad      	mov.n	a10, a2
40082abc:	0888      	l32i.n	a8, a8, 0
40082abe:	0008e0        	callx8	a8
40082ac1:	0a2d      	mov.n	a2, a10
40082ac3:	f01d      	retw.n
40082ac5:	000000        	ill

40082ac8 <vprintk>:
40082ac8:	00a136        	entry	a1, 80
40082acb:	00a0b2        	movi	a11, 0
40082ace:	f69ba1        	l32r	a10, 4008053c <_init_end+0x13c> (40082ab4 <char_out>)
40082ad1:	0061b2        	s32i	a11, a1, 0
40082ad4:	20d330        	or	a13, a3, a3
40082ad7:	04ed      	mov.n	a14, a4
40082ad9:	05fd      	mov.n	a15, a5
40082adb:	02cd      	mov.n	a12, a2
40082add:	ff6225        	call8	40082100 <z_cbvprintf_impl>
40082ae0:	f01d      	retw.n
	...

40082ae4 <printk>:
40082ae4:	00a136        	entry	a1, 80
40082ae7:	10c1c2        	addi	a12, a1, 16
40082aea:	30c1b2        	addi	a11, a1, 48
40082aed:	4d0c      	movi.n	a13, 4
40082aef:	5139      	s32i.n	a3, a1, 20
40082af1:	6149      	s32i.n	a4, a1, 24
40082af3:	7159      	s32i.n	a5, a1, 28
40082af5:	8169      	s32i.n	a6, a1, 32
40082af7:	9179      	s32i.n	a7, a1, 36
40082af9:	11c9      	s32i.n	a12, a1, 4
40082afb:	01b9      	s32i.n	a11, a1, 0
40082afd:	21d9      	s32i.n	a13, a1, 8
40082aff:	02ad      	mov.n	a10, a2
40082b01:	fffc65        	call8	40082ac8 <vprintk>
40082b04:	f01d      	retw.n
	...

40082b08 <console_out>:
40082b08:	004136        	entry	a1, 32
40082b0b:	f68d31        	l32r	a3, 40080540 <_init_end+0x140> (3f400ea0 <__device_dts_ord_53>)
40082b0e:	0a9266        	bnei	a2, 10, 40082b1c <console_out+0x14>
40082b11:	2388      	l32i.n	a8, a3, 8
40082b13:	db0c      	movi.n	a11, 13
40082b15:	1888      	l32i.n	a8, a8, 4
40082b17:	03ad      	mov.n	a10, a3
40082b19:	0008e0        	callx8	a8
40082b1c:	2388      	l32i.n	a8, a3, 8
40082b1e:	74b020        	extui	a11, a2, 0, 8
40082b21:	1888      	l32i.n	a8, a8, 4
40082b23:	03ad      	mov.n	a10, a3
40082b25:	0008e0        	callx8	a8
40082b28:	f01d      	retw.n
	...

40082b2c <__start>:
40082b2c:	004136        	entry	a1, 32
40082b2f:	fda165        	call8	40080544 <__esp_platform_start>
40082b32:	f01d      	retw.n

40082b34 <strlen>:
40082b34:	004136        	entry	a1, 32
40082b37:	080c      	movi.n	a8, 0
40082b39:	000046        	j	40082b3e <strlen+0xa>
40082b3c:	881b      	addi.n	a8, a8, 1
40082b3e:	928a      	add.n	a9, a2, a8
40082b40:	000992        	l8ui	a9, a9, 0
40082b43:	ff5956        	bnez	a9, 40082b3c <strlen+0x8>
40082b46:	082d      	mov.n	a2, a8
40082b48:	f01d      	retw.n
	...

40082b4c <strnlen>:
40082b4c:	004136        	entry	a1, 32
40082b4f:	080c      	movi.n	a8, 0
40082b51:	000046        	j	40082b56 <strnlen+0xa>
40082b54:	881b      	addi.n	a8, a8, 1
40082b56:	928a      	add.n	a9, a2, a8
40082b58:	000992        	l8ui	a9, a9, 0
40082b5b:	198c      	beqz.n	a9, 40082b60 <strnlen+0x14>
40082b5d:	f33837        	bltu	a8, a3, 40082b54 <strnlen+0x8>
40082b60:	082d      	mov.n	a2, a8
40082b62:	f01d      	retw.n

40082b64 <memset>:
40082b64:	004136        	entry	a1, 32
40082b67:	74b030        	extui	a11, a3, 0, 8
40082b6a:	028d      	mov.n	a8, a2
40082b6c:	000286        	j	40082b7a <memset+0x16>
40082b6f:	00          	.byte 00
40082b70:	041416        	beqz	a4, 40082bb5 <memset+0x51>
40082b73:	0048b2        	s8i	a11, a8, 0
40082b76:	440b      	addi.n	a4, a4, -1
40082b78:	881b      	addi.n	a8, a8, 1
40082b7a:	14a080        	extui	a10, a8, 0, 2
40082b7d:	089d      	mov.n	a9, a8
40082b7f:	feda56        	bnez	a10, 40082b70 <memset+0xc>
40082b82:	743030        	extui	a3, a3, 0, 8
40082b85:	11a380        	slli	a10, a3, 8
40082b88:	aa3a      	add.n	a10, a10, a3
40082b8a:	113a00        	slli	a3, a10, 16
40082b8d:	aa3a      	add.n	a10, a10, a3
40082b8f:	413240        	srli	a3, a4, 2
40082b92:	11c3e0        	slli	a12, a3, 2
40082b95:	a03380        	addx4	a3, a3, a8
40082b98:	000106        	j	40082ba0 <memset+0x3c>
40082b9b:	00          	.byte 00
40082b9c:	08a9      	s32i.n	a10, a8, 0
40082b9e:	884b      	addi.n	a8, a8, 4
40082ba0:	f89837        	bne	a8, a3, 40082b9c <memset+0x38>
40082ba3:	89ca      	add.n	a8, a9, a12
40082ba5:	144040        	extui	a4, a4, 0, 2
40082ba8:	448a      	add.n	a4, a4, a8
40082baa:	000106        	j	40082bb2 <memset+0x4e>
40082bad:	0048b2        	s8i	a11, a8, 0
40082bb0:	881b      	addi.n	a8, a8, 1
40082bb2:	f79847        	bne	a8, a4, 40082bad <memset+0x49>
40082bb5:	f01d      	retw.n
	...

Disassembly of section .flash.text:

400d0020 <_image_irom_vaddr>:
400d0020:	000aae60 	
400d0024:	002625a0 	
400d0028:	3f4009e8 	
400d002c:	3f400eb8 	
400d0030:	3f4009fc 	
400d0034:	01312d00 	
400d0038:	3b9aca00 	
400d003c:	3b9ac9ff 	
400d0040:	3f400a1f 	
400d0044:	ffff9e58 	
400d0048:	000061a8 	
400d004c:	0026259f 	
400d0050:	4000cff8 	
400d0054:	3ffb0000 	
400d0058:	f7ffffff 	
400d005c:	04c4b400 	
400d0060:	000f4240 	
400d0064:	ff0fffff 	
400d0068:	ff80ffff 	
400d006c:	ff7fffff 	
400d0070:	ffff7fff 	
400d0074:	ffff80ff 	
400d0078:	80ffffff 	
400d007c:	7fffffff 	
400d0080:	3ff40000 	
400d0084:	3ff50000 	
400d0088:	3ff6e000 	
400d008c:	3ff40000 	
400d0090:	3ff50000 	
400d0094:	60010000 	
400d0098:	6002e000 	
400d009c:	000fffff 	
400d00a0:	bfffffff 	
400d00a4:	c00fffff 	
400d00a8:	fff003ff 	
400d00ac:	3ff59000 	
400d00b0:	3ff5a014 	
400d00b4:	3f400a44 	
400d00b8:	3f400a4c 	
400d00bc:	3ff0003c 	
400d00c0:	3ff4807c 	
400d00c4:	ffffc7ff 	
400d00c8:	3ff48070 	
400d00cc:	e7ffffff 	
400d00d0:	3ff480b4 	
400d00d4:	4c4b4c4b 	
400d00d8:	40007d54 	
400d00dc:	3ff48000 	
400d00e0:	3ffb0440 	
400d00e4:	3ff48030 	
400d00e8:	3ff4848c 	
400d00ec:	e73ff7df 	
400d00f0:	ffcfffff 	
400d00f4:	fff7ffff 	
400d00f8:	fff9ffff 	
400d00fc:	3ff4801c 	
400d0100:	ffffc03f 	
400d0104:	40008534 	
400d0108:	3fffffff 	
400d010c:	dfffffff 	
400d0110:	3f400afa 	
400d0114:	3f400ae9 	
400d0118:	3f400ad8 	
400d011c:	3f400ac7 	
400d0120:	3f400ab6 	
400d0124:	3f400aa5 	
400d0128:	3f400a94 	
400d012c:	400041a4 	
400d0130:	3ff480b0 	
400d0134:	0000fffe 	
400d0138:	3ff66000 	
400d013c:	3f400a67 	
400d0140:	00010001 	
400d0144:	3ff66004 	
400d0148:	fffbfabf 	
400d014c:	081b081b 	
400d0150:	0ffff000 	
400d0154:	0007a120 	
400d0158:	431bde83 	
400d015c:	000081b3 	
400d0160:	000249f0 	
400d0164:	3ff5f068 	
400d0168:	ffff9fff 	
400d016c:	ffffefff 	
400d0170:	7fff0000 	
400d0174:	8000ffff 	
400d0178:	01ffffff 	
400d017c:	3f400b0b 	
400d0180:	3f400b14 	
400d0184:	3ff5f06c 	
400d0188:	7fffefff 	
400d018c:	0081b320 	
400d0190:	0f424000 	
400d0194:	3f400b4f 	
400d0198:	3f400b5c 	
400d019c:	3f400ba0 	
400d01a0:	3f400be4 	
400d01a4:	ffc03fff 	
400d01a8:	fe01ffff 	
400d01ac:	ffff8fff 	
400d01b0:	6000e044 	
400d01b4:	fffdbfff 	
400d01b8:	3f400c0b 	
400d01bc:	3f400c43 	
400d01c0:	3f400c97 	
400d01c4:	3ff66008 	
400d01c8:	fffc00ff 	
400d01cc:	40009278 	
400d01d0:	3f400578 	
400d01d4:	3ff00020 	
400d01d8:	3ff000d0 	
400d01dc:	3ff000c4 	
400d01e0:	3ff000c0 	
400d01e4:	3ff0001c 	
400d01e8:	3ff000cc 	
400d01ec:	3ffb0444 	
400d01f0:	3ffb05a8 	
400d01f4:	3f400604 	
400d01f8:	3f400690 	
400d01fc:	3ffb0370 	
400d0200:	3ffb025c 	
400d0204:	3f400cbc 	
400d0208:	3ffb0004 	
400d020c:	3ffb0558 	
400d0210:	3ffb0454 	
400d0214:	3f400cc5 	
400d0218:	3ffb0458 	
400d021c:	400d19ec 	
400d0220:	ffc1ffff 	
400d0224:	fffeffff 	
400d0228:	bff3e000 	
400d022c:	0ff3dfff 	
400d0230:	3f400ce8 	
400d0234:	40080614 	
400d0238:	c03fffff 	
400d023c:	3ffb0450 	
400d0240:	4000c1ec 	
400d0244:	4000681c 	
400d0248:	3f400890 	
400d024c:	04c4b3ff 	
400d0250:	3f400040 	
400d0254:	3f400cfb 	
400d0258:	ffe000ff 	
400d025c:	400081d4 	
400d0260:	3f400ea0 	
400d0264:	40082b08 	
400d0268:	3f4000e8 	
400d026c:	fffc1fff 	
400d0270:	3ffb05cb 	
400d0274:	400806f8 	
400d0278:	0eefffff 	
400d027c:	3f4004d8 	
400d0280:	3f400048 	
400d0284:	fffff3ff 	
400d0288:	3ff44000 	
400d028c:	0ffd114c 	
400d0290:	40009f0c 	
400d0294:	c4b40000 	
400d0298:	0003feff 	
400d029c:	0003ffff 	
400d02a0:	ff80001f 	
400d02a4:	fdffffff 	
400d02a8:	feffffff 	
400d02ac:	4000c938 	
400d02b0:	40002954 	
400d02b4:	4000c944 	
400d02b8:	4006358c 	
400d02bc:	40002b30 	
400d02c0:	1fffffff 	
400d02c4:	3f4009cc 	
400d02c8:	3ff44000 	
400d02cc:	3ff44800 	
400d02d0:	40009edc 	

400d02d4 <main>:
400d02d4:	008136        	entry	a1, 64
400d02d7:	ff54a1        	l32r	a10, 400d0028 <_image_irom_vaddr+0x8> (3f4009e8 <levels$0+0x14>)
400d02da:	b280a5        	call8	40082ae4 <printk>
400d02dd:	ff5341        	l32r	a4, 400d002c <_image_irom_vaddr+0xc> (3f400eb8 <__device_dts_ord_7>)
400d02e0:	01a052        	movi	a5, 1
400d02e3:	20a440        	or	a10, a4, a4
400d02e6:	b1b0a5        	call8	40081df0 <z_device_is_ready>
400d02e9:	ff4d21        	l32r	a2, 400d0020 <_image_irom_vaddr> (aae60 <CONFIG_ESP_HEAP_MEM_POOL_REGION_1_SIZE+0x9ee60>)
400d02ec:	6a8c      	beqz.n	a10, 400d02f6 <main+0x22>
400d02ee:	2468      	l32i.n	a6, a4, 8
400d02f0:	000286        	j	400d02fe <main+0x2a>
400d02f3:	00          	.byte 00
400d02f4:	00          	.byte 00
400d02f5:	00          	.byte 00
400d02f6:	04b8      	l32i.n	a11, a4, 0
400d02f8:	ff4ea1        	l32r	a10, 400d0030 <_image_irom_vaddr+0x10> (3f4009fc <levels$0+0x28>)
400d02fb:	002186        	j	400d0385 <main+0xb1>
400d02fe:	1638      	l32i.n	a3, a6, 4
400d0300:	01cd      	mov.n	a12, a1
400d0302:	7b0c      	movi.n	a11, 7
400d0304:	04ad      	mov.n	a10, a4
400d0306:	0003e0        	callx8	a3
400d0309:	073a96        	bltz	a10, 400d0380 <main+0xac>
400d030c:	0188      	l32i.n	a8, a1, 0
400d030e:	ff49a1        	l32r	a10, 400d0034 <_image_irom_vaddr+0x14> (1312d00 <CONFIG_FLASH_SIZE+0xf12d00>)
400d0311:	1138      	l32i.n	a3, a1, 4
400d0313:	a278a0        	muluh	a7, a8, a10
400d0316:	82f3a0        	mull	a15, a3, a10
400d0319:	ff47c1        	l32r	a12, 400d0038 <_image_irom_vaddr+0x18> (3b9aca00 <CONFIG_SYS_CLOCK_HW_CYCLES_PER_SEC+0x2d4cae00>)
400d031c:	ff7a      	add.n	a15, a15, a7
400d031e:	82a8a0        	mull	a10, a8, a10
400d0321:	0fbd      	mov.n	a11, a15
400d0323:	056182        	s32i	a8, a1, 20
400d0326:	0461f2        	s32i	a15, a1, 16
400d0329:	00a0d2        	movi	a13, 0
400d032c:	ff4981        	l32r	a8, 400d0050 <_image_irom_vaddr+0x30> (4000cff8 <__udivdi3>)
400d032f:	0008e0        	callx8	a8
400d0332:	41f8      	l32i.n	a15, a1, 16
400d0334:	ff4291        	l32r	a9, 400d003c <_image_irom_vaddr+0x1c> (3b9ac9ff <CONFIG_SYS_CLOCK_HW_CYCLES_PER_SEC+0x2d4cadff>)
400d0337:	5188      	l32i.n	a8, a1, 20
400d0339:	0a7d      	mov.n	a7, a10
400d033b:	1f39f7        	bltu	a9, a15, 400d035e <main+0x8a>
400d033e:	a2a280        	muluh	a10, a2, a8
400d0341:	823320        	mull	a3, a3, a2
400d0344:	ff3dc1        	l32r	a12, 400d0038 <_image_irom_vaddr+0x18> (3b9aca00 <CONFIG_SYS_CLOCK_HW_CYCLES_PER_SEC+0x2d4cae00>)
400d0347:	33aa      	add.n	a3, a3, a10
400d0349:	82a280        	mull	a10, a2, a8
400d034c:	0d0c      	movi.n	a13, 0
400d034e:	03bd      	mov.n	a11, a3
400d0350:	4179      	s32i.n	a7, a1, 16
400d0352:	ff3f81        	l32r	a8, 400d0050 <_image_irom_vaddr+0x30> (4000cff8 <__udivdi3>)
400d0355:	0008e0        	callx8	a8
400d0358:	ff3991        	l32r	a9, 400d003c <_image_irom_vaddr+0x1c> (3b9ac9ff <CONFIG_SYS_CLOCK_HW_CYCLES_PER_SEC+0x2d4cadff>)
400d035b:	05b937        	bgeu	a9, a3, 400d0364 <main+0x90>
400d035e:	7aafa2        	movi	a10, -134
400d0361:	0006c6        	j	400d0380 <main+0xac>
400d0364:	06b7a7        	bgeu	a7, a10, 400d036e <main+0x9a>
400d0367:	aa6c      	movi.n	a10, -22
400d0369:	0004c6        	j	400d0380 <main+0xac>
400d036c:	00          	.byte 00
400d036d:	00          	.byte 00
400d036e:	0638      	l32i.n	a3, a6, 0
400d0370:	0add      	mov.n	a13, a10
400d0372:	0e0c      	movi.n	a14, 0
400d0374:	07cd      	mov.n	a12, a7
400d0376:	7b0c      	movi.n	a11, 7
400d0378:	04ad      	mov.n	a10, a4
400d037a:	0003e0        	callx8	a3
400d037d:	00dad6        	bgez	a10, 400d038e <main+0xba>
400d0380:	0abd      	mov.n	a11, a10
400d0382:	ff2fa1        	l32r	a10, 400d0040 <_image_irom_vaddr+0x20> (3f400a1f <levels$0+0x4b>)
400d0385:	b275e5        	call8	40082ae4 <printk>
400d0388:	000ec6        	j	400d03c7 <main+0xf3>
400d038b:	00          	.byte 00
400d038c:	00          	.byte 00
400d038d:	00          	.byte 00
400d038e:	e5cc      	bnez.n	a5, 400d03a0 <main+0xcc>
400d0390:	ff2431        	l32r	a3, 400d0020 <_image_irom_vaddr> (aae60 <CONFIG_ESP_HEAP_MEM_POOL_REGION_1_SIZE+0x9ee60>)
400d0393:	1eb327        	bgeu	a3, a2, 400d03b5 <main+0xe1>
400d0396:	ff2b31        	l32r	a3, 400d0044 <_image_irom_vaddr+0x24> (ffff9e58 <_rtc_bss_end+0xafff9e58>)
400d0399:	223a      	add.n	a2, a2, a3
400d039b:	000706        	j	400d03bb <main+0xe7>
400d039e:	00          	.byte 00
400d039f:	00          	.byte 00
400d03a0:	ff2a31        	l32r	a3, 400d0048 <_image_irom_vaddr+0x28> (61a8 <_image_irom_start+0x2374>)
400d03a3:	223a      	add.n	a2, a2, a3
400d03a5:	ff2931        	l32r	a3, 400d004c <_image_irom_vaddr+0x2c> (26259f <CONFIG_XTENSA_CCOUNT_HZ+0x16e35f>)
400d03a8:	0fb327        	bgeu	a3, a2, 400d03bb <main+0xe7>
400d03ab:	ff1e21        	l32r	a2, 400d0024 <_image_irom_vaddr+0x4> (2625a0 <CONFIG_XTENSA_CCOUNT_HZ+0x16e360>)
400d03ae:	050c      	movi.n	a5, 0
400d03b0:	0001c6        	j	400d03bb <main+0xe7>
400d03b3:	00          	.byte 00
400d03b4:	00          	.byte 00
400d03b5:	01a052        	movi	a5, 1
400d03b8:	202330        	or	a2, a3, a3
400d03bb:	00a0b2        	movi	a11, 0
400d03be:	f4a1a2        	movi	a10, 0x1f4
400d03c1:	b15be5        	call8	40081980 <z_impl_k_sleep>
400d03c4:	ffcd86        	j	400d02fe <main+0x2a>
400d03c7:	f01d      	retw.n
400d03c9:	000000        	ill

400d03cc <__printk_hook_install>:
400d03cc:	004136        	entry	a1, 32
400d03cf:	ff2181        	l32r	a8, 400d0054 <_image_irom_vaddr+0x34> (3ffb0000 <_char_out>)
400d03d2:	0829      	s32i.n	a2, a8, 0
400d03d4:	f01d      	retw.n
	...

400d03d8 <z_thread_entry>:
400d03d8:	004136        	entry	a1, 32
400d03db:	20c550        	or	a12, a5, a5
400d03de:	20b440        	or	a11, a4, a4
400d03e1:	03ad      	mov.n	a10, a3
400d03e3:	0002e0        	callx8	a2
400d03e6:	b15ce5        	call8	400819b4 <z_impl_z_current_get>
400d03e9:	b167a5        	call8	40081a64 <z_impl_k_thread_abort>

400d03ec <free_list_add>:
400d03ec:	004136        	entry	a1, 32
400d03ef:	20b330        	or	a11, a3, a3
400d03f2:	20a220        	or	a10, a2, a2
400d03f5:	02b525        	call8	400d2f48 <chunk_size>
400d03f8:	1fa082        	movi	a8, 31
400d03fb:	40faa0        	nsau	a10, a10
400d03fe:	c0a8a0        	sub	a10, a8, a10
400d0401:	a0da20        	addx4	a13, a10, a2
400d0404:	1183d0        	slli	a8, a3, 3
400d0407:	4dc8      	l32i.n	a12, a13, 16
400d0409:	b84b      	addi.n	a11, a8, 4
400d040b:	886b      	addi.n	a8, a8, 6
400d040d:	b2ba      	add.n	a11, a2, a11
400d040f:	828a      	add.n	a8, a2, a8
400d0411:	f49030        	extui	a9, a3, 0, 16
400d0414:	8cdc      	bnez.n	a12, 400d0430 <free_list_add+0x44>
400d0416:	1c0c      	movi.n	a12, 1
400d0418:	401a00        	ssl	a10
400d041b:	a1cc00        	sll	a12, a12
400d041e:	32a8      	l32i.n	a10, a2, 12
400d0420:	20aac0        	or	a10, a10, a12
400d0423:	32a9      	s32i.n	a10, a2, 12
400d0425:	4d39      	s32i.n	a3, a13, 16
400d0427:	005b92        	s16i	a9, a11, 0
400d042a:	005892        	s16i	a9, a8, 0
400d042d:	000506        	j	400d0445 <free_list_add+0x59>
400d0430:	b03c20        	addx8	a3, a12, a2
400d0433:	0213a2        	l16ui	a10, a3, 4
400d0436:	005ba2        	s16i	a10, a11, 0
400d0439:	0058c2        	s16i	a12, a8, 0
400d043c:	b0aa20        	addx8	a10, a10, a2
400d043f:	035a92        	s16i	a9, a10, 6
400d0442:	025392        	s16i	a9, a3, 4
400d0445:	f01d      	retw.n
	...

400d0448 <free_list_remove>:
400d0448:	004136        	entry	a1, 32
400d044b:	20b330        	or	a11, a3, a3
400d044e:	20a220        	or	a10, a2, a2
400d0451:	02af65        	call8	400d2f48 <chunk_size>
400d0454:	40faa0        	nsau	a10, a10
400d0457:	fc1c      	movi.n	a12, 31
400d0459:	c0cca0        	sub	a12, a12, a10
400d045c:	03bd      	mov.n	a11, a3
400d045e:	20a220        	or	a10, a2, a2
400d0461:	02b125        	call8	400d2f74 <free_list_remove_bidx>
400d0464:	f01d      	retw.n
	...

400d0468 <alloc_chunk>:
400d0468:	006136        	entry	a1, 48
400d046b:	40f350        	nsau	a5, a3
400d046e:	f61c      	movi.n	a6, 31
400d0470:	c06650        	sub	a6, a6, a5
400d0473:	03cd      	mov.n	a12, a3
400d0475:	a03620        	addx4	a3, a6, a2
400d0478:	4398      	l32i.n	a9, a3, 16
400d047a:	024d      	mov.n	a4, a2
400d047c:	e9ac      	beqz.n	a9, 400d04ae <alloc_chunk+0x46>
400d047e:	370c      	movi.n	a7, 3
400d0480:	042322        	l32i	a2, a3, 16
400d0483:	20a440        	or	a10, a4, a4
400d0486:	006192        	s32i	a9, a1, 0
400d0489:	11c9      	s32i.n	a12, a1, 4
400d048b:	02bd      	mov.n	a11, a2
400d048d:	02aba5        	call8	400d2f48 <chunk_size>
400d0490:	11c8      	l32i.n	a12, a1, 4
400d0492:	0198      	l32i.n	a9, a1, 0
400d0494:	043ac7        	bltu	a10, a12, 400d049c <alloc_chunk+0x34>
400d0497:	06cd      	mov.n	a12, a6
400d0499:	000e46        	j	400d04d6 <alloc_chunk+0x6e>
400d049c:	b08240        	addx8	a8, a2, a4
400d049f:	031822        	l16ui	a2, a8, 6
400d04a2:	ffc772        	addi	a7, a7, -1
400d04a5:	046322        	s32i	a2, a3, 16
400d04a8:	021927        	beq	a9, a2, 400d04ae <alloc_chunk+0x46>
400d04ab:	fd1756        	bnez	a7, 400d0480 <alloc_chunk+0x18>
400d04ae:	032422        	l32i	a2, a4, 12
400d04b1:	605050        	neg	a5, a5
400d04b4:	f87c      	movi.n	a8, -1
400d04b6:	401500        	ssl	a5
400d04b9:	a18800        	sll	a8, a8
400d04bc:	102820        	and	a2, a8, a2
400d04bf:	a29c      	beqz.n	a2, 400d04dd <alloc_chunk+0x75>
400d04c1:	60c020        	neg	a12, a2
400d04c4:	10cc20        	and	a12, a12, a2
400d04c7:	40fcc0        	nsau	a12, a12
400d04ca:	60c0c0        	neg	a12, a12
400d04cd:	a02c40        	addx4	a2, a12, a4
400d04d0:	232222        	l32i	a2, a2, 140
400d04d3:	1fccc2        	addi	a12, a12, 31
400d04d6:	02bd      	mov.n	a11, a2
400d04d8:	04ad      	mov.n	a10, a4
400d04da:	02a9a5        	call8	400d2f74 <free_list_remove_bidx>
400d04dd:	f01d      	retw.n
	...

400d04e0 <merge_chunks>:
400d04e0:	004136        	entry	a1, 32
400d04e3:	20b330        	or	a11, a3, a3
400d04e6:	02ad      	mov.n	a10, a2
400d04e8:	02a5e5        	call8	400d2f48 <chunk_size>
400d04eb:	04bd      	mov.n	a11, a4
400d04ed:	0a5d      	mov.n	a5, a10
400d04ef:	02ad      	mov.n	a10, a2
400d04f1:	02a565        	call8	400d2f48 <chunk_size>
400d04f4:	55aa      	add.n	a5, a5, a10
400d04f6:	855a      	add.n	a8, a5, a5
400d04f8:	b03320        	addx8	a3, a3, a2
400d04fb:	04bd      	mov.n	a11, a4
400d04fd:	015382        	s16i	a8, a3, 2
400d0500:	02ad      	mov.n	a10, a2
400d0502:	02a465        	call8	400d2f48 <chunk_size>
400d0505:	44aa      	add.n	a4, a4, a10
400d0507:	b04420        	addx8	a4, a4, a2
400d050a:	005452        	s16i	a5, a4, 0
400d050d:	f01d      	retw.n
	...

400d0510 <split_chunks>:
400d0510:	004136        	entry	a1, 32
400d0513:	20b330        	or	a11, a3, a3
400d0516:	20a220        	or	a10, a2, a2
400d0519:	02a2e5        	call8	400d2f48 <chunk_size>
400d051c:	c08430        	sub	a8, a4, a3
400d051f:	c05340        	sub	a5, a3, a4
400d0522:	55aa      	add.n	a5, a5, a10
400d0524:	988a      	add.n	a9, a8, a8
400d0526:	b03320        	addx8	a3, a3, a2
400d0529:	015392        	s16i	a9, a3, 2
400d052c:	b03420        	addx8	a3, a4, a2
400d052f:	955a      	add.n	a9, a5, a5
400d0531:	04bd      	mov.n	a11, a4
400d0533:	015392        	s16i	a9, a3, 2
400d0536:	005382        	s16i	a8, a3, 0
400d0539:	02ad      	mov.n	a10, a2
400d053b:	02a0e5        	call8	400d2f48 <chunk_size>
400d053e:	44aa      	add.n	a4, a4, a10
400d0540:	b04420        	addx8	a4, a4, a2
400d0543:	005452        	s16i	a5, a4, 0
400d0546:	f01d      	retw.n

400d0548 <free_chunk>:
400d0548:	004136        	entry	a1, 32
400d054b:	03bd      	mov.n	a11, a3
400d054d:	02ad      	mov.n	a10, a2
400d054f:	029fa5        	call8	400d2f48 <chunk_size>
400d0552:	b3aa      	add.n	a11, a3, a10
400d0554:	b04b20        	addx8	a4, a11, a2
400d0557:	011442        	l16ui	a4, a4, 2
400d055a:	14e407        	bbsi	a4, 0, 400d0572 <free_chunk+0x2a>
400d055d:	02ad      	mov.n	a10, a2
400d055f:	ffeea5        	call8	400d0448 <free_list_remove>
400d0562:	03bd      	mov.n	a11, a3
400d0564:	02ad      	mov.n	a10, a2
400d0566:	029e25        	call8	400d2f48 <chunk_size>
400d0569:	c3aa      	add.n	a12, a3, a10
400d056b:	03bd      	mov.n	a11, a3
400d056d:	02ad      	mov.n	a10, a2
400d056f:	fff725        	call8	400d04e0 <merge_chunks>
400d0572:	b04320        	addx8	a4, a3, a2
400d0575:	0014b2        	l16ui	a11, a4, 0
400d0578:	c0b3b0        	sub	a11, a3, a11
400d057b:	b08b20        	addx8	a8, a11, a2
400d057e:	011882        	l16ui	a8, a8, 2
400d0581:	18e807        	bbsi	a8, 0, 400d059d <free_chunk+0x55>
400d0584:	02ad      	mov.n	a10, a2
400d0586:	ffec25        	call8	400d0448 <free_list_remove>
400d0589:	0014b2        	l16ui	a11, a4, 0
400d058c:	03cd      	mov.n	a12, a3
400d058e:	c0b3b0        	sub	a11, a3, a11
400d0591:	20a220        	or	a10, a2, a2
400d0594:	fff4a5        	call8	400d04e0 <merge_chunks>
400d0597:	001442        	l16ui	a4, a4, 0
400d059a:	c03340        	sub	a3, a3, a4
400d059d:	03bd      	mov.n	a11, a3
400d059f:	02ad      	mov.n	a10, a2
400d05a1:	ffe4a5        	call8	400d03ec <free_list_add>
400d05a4:	f01d      	retw.n
	...

400d05a8 <sys_heap_free>:
400d05a8:	004136        	entry	a1, 32
400d05ab:	01b316        	beqz	a3, 400d05ca <sys_heap_free+0x22>
400d05ae:	002222        	l32i	a2, a2, 0
400d05b1:	fcc332        	addi	a3, a3, -4
400d05b4:	c03320        	sub	a3, a3, a2
400d05b7:	413330        	srli	a3, a3, 3
400d05ba:	03bd      	mov.n	a11, a3
400d05bc:	02ad      	mov.n	a10, a2
400d05be:	0c0c      	movi.n	a12, 0
400d05c0:	029965        	call8	400d2f58 <set_chunk_used>
400d05c3:	03bd      	mov.n	a11, a3
400d05c5:	02ad      	mov.n	a10, a2
400d05c7:	fff825        	call8	400d0548 <free_chunk>
400d05ca:	f01d      	retw.n

400d05cc <sys_heap_alloc>:
400d05cc:	004136        	entry	a1, 32
400d05cf:	0248      	l32i.n	a4, a2, 0
400d05d1:	004356        	bnez	a3, 400d05d9 <sys_heap_alloc+0xd>
400d05d4:	020c      	movi.n	a2, 0
400d05d6:	001206        	j	400d0622 <sys_heap_alloc+0x56>
400d05d9:	2488      	l32i.n	a8, a4, 8
400d05db:	412330        	srli	a2, a3, 3
400d05de:	f2b287        	bgeu	a2, a8, 400d05d4 <sys_heap_alloc+0x8>
400d05e1:	33bb      	addi.n	a3, a3, 11
400d05e3:	413330        	srli	a3, a3, 3
400d05e6:	03bd      	mov.n	a11, a3
400d05e8:	20a440        	or	a10, a4, a4
400d05eb:	ffe7e5        	call8	400d0468 <alloc_chunk>
400d05ee:	0a2d      	mov.n	a2, a10
400d05f0:	fe0a16        	beqz	a10, 400d05d4 <sys_heap_alloc+0x8>
400d05f3:	0abd      	mov.n	a11, a10
400d05f5:	04ad      	mov.n	a10, a4
400d05f7:	029525        	call8	400d2f48 <chunk_size>
400d05fa:	13b3a7        	bgeu	a3, a10, 400d0611 <sys_heap_alloc+0x45>
400d05fd:	323a      	add.n	a3, a2, a3
400d05ff:	02bd      	mov.n	a11, a2
400d0601:	04ad      	mov.n	a10, a4
400d0603:	20c330        	or	a12, a3, a3
400d0606:	fff0a5        	call8	400d0510 <split_chunks>
400d0609:	03bd      	mov.n	a11, a3
400d060b:	20a440        	or	a10, a4, a4
400d060e:	ffdde5        	call8	400d03ec <free_list_add>
400d0611:	20b220        	or	a11, a2, a2
400d0614:	01a0c2        	movi	a12, 1
400d0617:	20a440        	or	a10, a4, a4
400d061a:	b02240        	addx8	a2, a2, a4
400d061d:	0293a5        	call8	400d2f58 <set_chunk_used>
400d0620:	224b      	addi.n	a2, a2, 4
400d0622:	f01d      	retw.n

400d0624 <sys_heap_aligned_alloc>:
400d0624:	004136        	entry	a1, 32
400d0627:	730b      	addi.n	a7, a3, -1
400d0629:	107730        	and	a7, a7, a3
400d062c:	0258      	l32i.n	a5, a2, 0
400d062e:	079c      	beqz.n	a7, 400d0642 <sys_heap_aligned_alloc+0x1e>
400d0630:	602030        	neg	a2, a3
400d0633:	102230        	and	a2, a2, a3
400d0636:	460c      	movi.n	a6, 4
400d0638:	073d      	mov.n	a3, a7
400d063a:	636260        	minu	a6, a2, a6
400d063d:	027d      	mov.n	a7, a2
400d063f:	0004c6        	j	400d0656 <sys_heap_aligned_alloc+0x32>
400d0642:	04a062        	movi	a6, 4
400d0645:	0d53f6        	bgeui	a3, 5, 400d0656 <sys_heap_aligned_alloc+0x32>
400d0648:	20a220        	or	a10, a2, a2
400d064b:	20b440        	or	a11, a4, a4
400d064e:	fff7e5        	call8	400d05cc <sys_heap_alloc>
400d0651:	0a2d      	mov.n	a2, a10
400d0653:	002346        	j	400d06e4 <sys_heap_aligned_alloc+0xc0>
400d0656:	44cc      	bnez.n	a4, 400d065e <sys_heap_aligned_alloc+0x3a>
400d0658:	020c      	movi.n	a2, 0
400d065a:	002186        	j	400d06e4 <sys_heap_aligned_alloc+0xc0>
400d065d:	00          	.byte 00
400d065e:	022582        	l32i	a8, a5, 8
400d0661:	412340        	srli	a2, a4, 3
400d0664:	f0b287        	bgeu	a2, a8, 400d0658 <sys_heap_aligned_alloc+0x34>
400d0667:	0bc4b2        	addi	a11, a4, 11
400d066a:	bb3a      	add.n	a11, a11, a3
400d066c:	c0bb60        	sub	a11, a11, a6
400d066f:	41b3b0        	srli	a11, a11, 3
400d0672:	05ad      	mov.n	a10, a5
400d0674:	ffdf25        	call8	400d0468 <alloc_chunk>
400d0677:	0a6d      	mov.n	a6, a10
400d0679:	fdba16        	beqz	a10, 400d0658 <sys_heap_aligned_alloc+0x34>
400d067c:	274b      	addi.n	a2, a7, 4
400d067e:	b02a20        	addx8	a2, a10, a2
400d0681:	830b      	addi.n	a8, a3, -1
400d0683:	252a      	add.n	a2, a5, a2
400d0685:	603030        	neg	a3, a3
400d0688:	228a      	add.n	a2, a2, a8
400d068a:	102230        	and	a2, a2, a3
400d068d:	c02270        	sub	a2, a2, a7
400d0690:	424a      	add.n	a4, a2, a4
400d0692:	fcc232        	addi	a3, a2, -4
400d0695:	447b      	addi.n	a4, a4, 7
400d0697:	877c      	movi.n	a7, -8
400d0699:	c03350        	sub	a3, a3, a5
400d069c:	104470        	and	a4, a4, a7
400d069f:	c04450        	sub	a4, a4, a5
400d06a2:	413330        	srli	a3, a3, 3
400d06a5:	214340        	srai	a4, a4, 3
400d06a8:	0fba37        	bgeu	a10, a3, 400d06bb <sys_heap_aligned_alloc+0x97>
400d06ab:	0abd      	mov.n	a11, a10
400d06ad:	03cd      	mov.n	a12, a3
400d06af:	05ad      	mov.n	a10, a5
400d06b1:	ffe5e5        	call8	400d0510 <split_chunks>
400d06b4:	06bd      	mov.n	a11, a6
400d06b6:	05ad      	mov.n	a10, a5
400d06b8:	ffd325        	call8	400d03ec <free_list_add>
400d06bb:	03bd      	mov.n	a11, a3
400d06bd:	05ad      	mov.n	a10, a5
400d06bf:	0288a5        	call8	400d2f48 <chunk_size>
400d06c2:	a3aa      	add.n	a10, a3, a10
400d06c4:	10b4a7        	bgeu	a4, a10, 400d06d8 <sys_heap_aligned_alloc+0xb4>
400d06c7:	03bd      	mov.n	a11, a3
400d06c9:	05ad      	mov.n	a10, a5
400d06cb:	20c440        	or	a12, a4, a4
400d06ce:	ffe425        	call8	400d0510 <split_chunks>
400d06d1:	04bd      	mov.n	a11, a4
400d06d3:	05ad      	mov.n	a10, a5
400d06d5:	ffd165        	call8	400d03ec <free_list_add>
400d06d8:	01a0c2        	movi	a12, 1
400d06db:	20b330        	or	a11, a3, a3
400d06de:	20a550        	or	a10, a5, a5
400d06e1:	028765        	call8	400d2f58 <set_chunk_used>
400d06e4:	f01d      	retw.n
	...

400d06e8 <sys_heap_init>:
400d06e8:	004136        	entry	a1, 32
400d06eb:	fcc442        	addi	a4, a4, -4
400d06ee:	857c      	movi.n	a5, -8
400d06f0:	937b      	addi.n	a9, a3, 7
400d06f2:	334a      	add.n	a3, a3, a4
400d06f4:	109950        	and	a9, a9, a5
400d06f7:	103350        	and	a3, a3, a5
400d06fa:	c03390        	sub	a3, a3, a9
400d06fd:	415330        	srli	a5, a3, 3
400d0700:	40f5a0        	nsau	a10, a5
400d0703:	082c      	movi.n	a8, 32
400d0705:	0299      	s32i.n	a9, a2, 0
400d0707:	c088a0        	sub	a8, a8, a10
400d070a:	422c      	movi.n	a2, 36
400d070c:	c022a0        	sub	a2, a2, a10
400d070f:	1188e0        	slli	a8, a8, 2
400d0712:	1122e0        	slli	a2, a2, 2
400d0715:	fcc882        	addi	a8, a8, -4
400d0718:	060c      	movi.n	a6, 0
400d071a:	227b      	addi.n	a2, a2, 7
400d071c:	418280        	srli	a8, a8, 2
400d071f:	094d      	mov.n	a4, a9
400d0721:	2959      	s32i.n	a5, a9, 8
400d0723:	3969      	s32i.n	a6, a9, 12
400d0725:	412320        	srli	a2, a2, 3
400d0728:	881b      	addi.n	a8, a8, 1
400d072a:	048876        	loop	a8, 400d0732 <sys_heap_init+0x4a>
400d072d:	4969      	s32i.n	a6, a9, 16
400d072f:	04c992        	addi	a9, a9, 4
400d0732:	822a      	add.n	a8, a2, a2
400d0734:	015482        	s16i	a8, a4, 2
400d0737:	04ad      	mov.n	a10, a4
400d0739:	005462        	s16i	a6, a4, 0
400d073c:	1c0c      	movi.n	a12, 1
400d073e:	0b0c      	movi.n	a11, 0
400d0740:	028165        	call8	400d2f58 <set_chunk_used>
400d0743:	c08520        	sub	a8, a5, a2
400d0746:	b09240        	addx8	a9, a2, a4
400d0749:	a88a      	add.n	a10, a8, a8
400d074b:	0159a2        	s16i	a10, a9, 2
400d074e:	005922        	s16i	a2, a9, 0
400d0751:	343a      	add.n	a3, a4, a3
400d0753:	05bd      	mov.n	a11, a5
400d0755:	20a440        	or	a10, a4, a4
400d0758:	015362        	s16i	a6, a3, 2
400d075b:	005382        	s16i	a8, a3, 0
400d075e:	1c0c      	movi.n	a12, 1
400d0760:	027f65        	call8	400d2f58 <set_chunk_used>
400d0763:	02bd      	mov.n	a11, a2
400d0765:	04ad      	mov.n	a10, a4
400d0767:	ffc865        	call8	400d03ec <free_list_add>
400d076a:	f01d      	retw.n

400d076c <uart_hal_set_sclk>:
400d076c:	004136        	entry	a1, 32
400d076f:	02a8      	l32i.n	a10, a2, 0
400d0771:	090c      	movi.n	a9, 0
400d0773:	180c      	movi.n	a8, 1
400d0775:	938930        	movnez	a8, a9, a3
400d0778:	019850        	slli	a9, a8, 27
400d077b:	fe37b1        	l32r	a11, 400d0058 <_image_irom_vaddr+0x38> (f7ffffff <_rtc_bss_end+0xa7ffffff>)
400d077e:	0020c0        	memw
400d0781:	8a88      	l32i.n	a8, a10, 32
400d0783:	1088b0        	and	a8, a8, a11
400d0786:	208890        	or	a8, a8, a9
400d0789:	0020c0        	memw
400d078c:	8a89      	s32i.n	a8, a10, 32
400d078e:	f01d      	retw.n

400d0790 <uart_hal_set_baudrate>:
400d0790:	004136        	entry	a1, 32
400d0793:	0298      	l32i.n	a9, a2, 0
400d0795:	fe3281        	l32r	a8, 400d0060 <_image_irom_vaddr+0x40> (f4240 <CONFIG_XTENSA_CCOUNT_HZ>)
400d0798:	0020c0        	memw
400d079b:	0829a2        	l32i	a10, a9, 32
400d079e:	027ab7        	bbci	a10, 27, 400d07a4 <uart_hal_set_baudrate+0x14>
400d07a1:	fe2e81        	l32r	a8, 400d005c <_image_irom_vaddr+0x3c> (4c4b400 <CONFIG_FLASH_SIZE+0x484b400>)
400d07a4:	1188c0        	slli	a8, a8, 4
400d07a7:	0020c0        	memw
400d07aa:	59a8      	l32i.n	a10, a9, 20
400d07ac:	c28830        	quou	a8, a8, a3
400d07af:	fc7c      	movi.n	a12, -1
400d07b1:	11b880        	slli	a11, a8, 8
400d07b4:	01ccc0        	slli	a12, a12, 20
400d07b7:	41bcb0        	srli	a11, a11, 12
400d07ba:	10aac0        	and	a10, a10, a12
400d07bd:	20aab0        	or	a10, a10, a11
400d07c0:	0020c0        	memw
400d07c3:	59a9      	s32i.n	a10, a9, 20
400d07c5:	0020c0        	memw
400d07c8:	59a8      	l32i.n	a10, a9, 20
400d07ca:	fe26b1        	l32r	a11, 400d0064 <_image_irom_vaddr+0x44> (ff0fffff <_rtc_bss_end+0xaf0fffff>)
400d07cd:	348080        	extui	a8, a8, 0, 4
400d07d0:	0188c0        	slli	a8, a8, 20
400d07d3:	10aab0        	and	a10, a10, a11
400d07d6:	208a80        	or	a8, a10, a8
400d07d9:	0020c0        	memw
400d07dc:	5989      	s32i.n	a8, a9, 20
400d07de:	f01d      	retw.n

400d07e0 <uart_hal_set_hw_flow_ctrl>:
400d07e0:	004136        	entry	a1, 32
400d07e3:	0288      	l32i.n	a8, a2, 0
400d07e5:	744040        	extui	a4, a4, 0, 8
400d07e8:	286307        	bbci	a3, 0, 400d0814 <uart_hal_set_hw_flow_ctrl+0x34>
400d07eb:	0020c0        	memw
400d07ee:	9898      	l32i.n	a9, a8, 36
400d07f0:	fe1ea1        	l32r	a10, 400d0068 <_image_irom_vaddr+0x48> (ff80ffff <_rtc_bss_end+0xaf80ffff>)
400d07f3:	644040        	extui	a4, a4, 0, 7
400d07f6:	114400        	slli	a4, a4, 16
400d07f9:	1099a0        	and	a9, a9, a10
400d07fc:	209940        	or	a9, a9, a4
400d07ff:	0020c0        	memw
400d0802:	9899      	s32i.n	a9, a8, 36
400d0804:	0020c0        	memw
400d0807:	9848      	l32i.n	a4, a8, 36
400d0809:	190c      	movi.n	a9, 1
400d080b:	019990        	slli	a9, a9, 23
400d080e:	204490        	or	a4, a4, a9
400d0811:	000286        	j	400d081f <uart_hal_set_hw_flow_ctrl+0x3f>
400d0814:	0020c0        	memw
400d0817:	9848      	l32i.n	a4, a8, 36
400d0819:	fe1491        	l32r	a9, 400d006c <_image_irom_vaddr+0x4c> (ff7fffff <_rtc_bss_end+0xaf7fffff>)
400d081c:	104490        	and	a4, a4, a9
400d081f:	0020c0        	memw
400d0822:	9849      	s32i.n	a4, a8, 36
400d0824:	0020c0        	memw
400d0827:	8848      	l32i.n	a4, a8, 32
400d0829:	0b6317        	bbci	a3, 1, 400d0838 <uart_hal_set_hw_flow_ctrl+0x58>
400d082c:	190c      	movi.n	a9, 1
400d082e:	119910        	slli	a9, a9, 15
400d0831:	204490        	or	a4, a4, a9
400d0834:	000186        	j	400d083e <uart_hal_set_hw_flow_ctrl+0x5e>
400d0837:	00          	.byte 00
400d0838:	fe0e31        	l32r	a3, 400d0070 <_image_irom_vaddr+0x50> (ffff7fff <_rtc_bss_end+0xafff7fff>)
400d083b:	104430        	and	a4, a4, a3
400d083e:	0020c0        	memw
400d0841:	8849      	s32i.n	a4, a8, 32
400d0843:	f01d      	retw.n
400d0845:	000000        	ill

400d0848 <uart_hal_set_txfifo_empty_thr>:
400d0848:	004136        	entry	a1, 32
400d084b:	0298      	l32i.n	a9, a2, 0
400d084d:	fe09a1        	l32r	a10, 400d0074 <_image_irom_vaddr+0x54> (ffff80ff <_rtc_bss_end+0xafff80ff>)
400d0850:	0020c0        	memw
400d0853:	9988      	l32i.n	a8, a9, 36
400d0855:	643030        	extui	a3, a3, 0, 7
400d0858:	113380        	slli	a3, a3, 8
400d085b:	1088a0        	and	a8, a8, a10
400d085e:	208830        	or	a8, a8, a3
400d0861:	0020c0        	memw
400d0864:	9989      	s32i.n	a8, a9, 36
400d0866:	f01d      	retw.n

400d0868 <uart_hal_set_rx_timeout>:
400d0868:	004136        	entry	a1, 32
400d086b:	02ad      	mov.n	a10, a2
400d086d:	028a65        	call8	400d3114 <uart_hal_get_symb_len>
400d0870:	743030        	extui	a3, a3, 0, 8
400d0873:	0298      	l32i.n	a9, a2, 0
400d0875:	82aa30        	mull	a10, a10, a3
400d0878:	0020c0        	memw
400d087b:	8928      	l32i.n	a2, a9, 32
400d087d:	f4a0a0        	extui	a10, a10, 0, 16
400d0880:	8a7b      	addi.n	a8, a10, 7
400d0882:	c48380        	extui	a8, a8, 3, 13
400d0885:	05f2b7        	bbsi	a2, 27, 400d088e <uart_hal_set_rx_timeout+0x26>
400d0888:	11aad0        	slli	a10, a10, 3
400d088b:	f480a0        	extui	a8, a10, 0, 16
400d088e:	78ac      	beqz.n	a8, 400d08b9 <uart_hal_set_rx_timeout+0x51>
400d0890:	0020c0        	memw
400d0893:	9938      	l32i.n	a3, a9, 36
400d0895:	fdf821        	l32r	a2, 400d0078 <_image_irom_vaddr+0x58> (80ffffff <_rtc_bss_end+0x30ffffff>)
400d0898:	648080        	extui	a8, a8, 0, 7
400d089b:	018880        	slli	a8, a8, 24
400d089e:	103320        	and	a3, a3, a2
400d08a1:	203380        	or	a3, a3, a8
400d08a4:	0020c0        	memw
400d08a7:	9939      	s32i.n	a3, a9, 36
400d08a9:	0020c0        	memw
400d08ac:	9938      	l32i.n	a3, a9, 36
400d08ae:	f87c      	movi.n	a8, -1
400d08b0:	018810        	slli	a8, a8, 31
400d08b3:	203380        	or	a3, a3, a8
400d08b6:	000286        	j	400d08c4 <uart_hal_set_rx_timeout+0x5c>
400d08b9:	0020c0        	memw
400d08bc:	9938      	l32i.n	a3, a9, 36
400d08be:	fdef21        	l32r	a2, 400d007c <_image_irom_vaddr+0x5c> (7fffffff <_rtc_bss_end+0x2fffffff>)
400d08c1:	103320        	and	a3, a3, a2
400d08c4:	0020c0        	memw
400d08c7:	9939      	s32i.n	a3, a9, 36
400d08c9:	f01d      	retw.n
	...

400d08cc <uart_hal_rxfifo_rst>:
400d08cc:	006136        	entry	a1, 48
400d08cf:	0288      	l32i.n	a8, a2, 0
400d08d1:	fdeea1        	l32r	a10, 400d008c <_image_irom_vaddr+0x6c> (3ff40000 <UART0>)
400d08d4:	fdeb91        	l32r	a9, 400d0080 <_image_irom_vaddr+0x60> (3ff40000 <UART0>)
400d08d7:	0b18a7        	beq	a8, a10, 400d08e6 <uart_hal_rxfifo_rst+0x1a>
400d08da:	fdeda1        	l32r	a10, 400d0090 <_image_irom_vaddr+0x70> (3ff50000 <UART1>)
400d08dd:	fde991        	l32r	a9, 400d0084 <_image_irom_vaddr+0x64> (3ff50000 <UART1>)
400d08e0:	0218a7        	beq	a8, a10, 400d08e6 <uart_hal_rxfifo_rst+0x1a>
400d08e3:	fde991        	l32r	a9, 400d0088 <_image_irom_vaddr+0x68> (3ff6e000 <LEDC+0x15000>)
400d08e6:	0020c0        	memw
400d08e9:	78a8      	l32i.n	a10, a8, 28
400d08eb:	0020c0        	memw
400d08ee:	01a9      	s32i.n	a10, a1, 0
400d08f0:	0020c0        	memw
400d08f3:	0001a2        	l8ui	a10, a1, 0
400d08f6:	0020c0        	memw
400d08f9:	1828b2        	l32i	a11, a8, 96
400d08fc:	74a0a0        	extui	a10, a10, 0, 8
400d08ff:	0020c0        	memw
400d0902:	11b9      	s32i.n	a11, a1, 4
400d0904:	1adc      	bnez.n	a10, 400d0919 <uart_hal_rxfifo_rst+0x4d>
400d0906:	0020c0        	memw
400d0909:	11b8      	l32i.n	a11, a1, 4
400d090b:	0020c0        	memw
400d090e:	11a8      	l32i.n	a10, a1, 4
400d0910:	a4b2b0        	extui	a11, a11, 2, 11
400d0913:	a4ada0        	extui	a10, a10, 13, 11
400d0916:	071ba7        	beq	a11, a10, 400d0921 <uart_hal_rxfifo_rst+0x55>
400d0919:	0020c0        	memw
400d091c:	09a8      	l32i.n	a10, a9, 0
400d091e:	fff106        	j	400d08e6 <uart_hal_rxfifo_rst+0x1a>
400d0921:	f01d      	retw.n
	...

400d0924 <uart_hal_write_txfifo>:
400d0924:	006136        	entry	a1, 48
400d0927:	0288      	l32i.n	a8, a2, 0
400d0929:	f4a040        	extui	a10, a4, 0, 16
400d092c:	0020c0        	memw
400d092f:	7888      	l32i.n	a8, a8, 28
400d0931:	0020c0        	memw
400d0934:	0189      	s32i.n	a8, a1, 0
400d0936:	0020c0        	memw
400d0939:	020192        	l8ui	a9, a1, 2
400d093c:	80a082        	movi	a8, 128
400d093f:	749090        	extui	a9, a9, 0, 8
400d0942:	c08890        	sub	a8, a8, a9
400d0945:	f49080        	extui	a9, a8, 0, 16
400d0948:	023497        	bltu	a4, a9, 400d094e <uart_hal_write_txfifo+0x2a>
400d094b:	f4a080        	extui	a10, a8, 0, 16
400d094e:	05a9      	s32i.n	a10, a5, 0
400d0950:	0298      	l32i.n	a9, a2, 0
400d0952:	fdce21        	l32r	a2, 400d008c <_image_irom_vaddr+0x6c> (3ff40000 <UART0>)
400d0955:	380c      	movi.n	a8, 3
400d0957:	018830        	slli	a8, a8, 29
400d095a:	0b1927        	beq	a9, a2, 400d0969 <uart_hal_write_txfifo+0x45>
400d095d:	fdcc21        	l32r	a2, 400d0090 <_image_irom_vaddr+0x70> (3ff50000 <UART1>)
400d0960:	fdce81        	l32r	a8, 400d0098 <_image_irom_vaddr+0x78> (6002e000 <_rtc_bss_end+0x1002e000>)
400d0963:	029927        	bne	a9, a2, 400d0969 <uart_hal_write_txfifo+0x45>
400d0966:	fdcb81        	l32r	a8, 400d0094 <_image_irom_vaddr+0x74> (60010000 <_rtc_bss_end+0x10010000>)
400d0969:	090c      	movi.n	a9, 0
400d096b:	0002c6        	j	400d097a <uart_hal_write_txfifo+0x56>
400d096e:	239a      	add.n	a2, a3, a9
400d0970:	000222        	l8ui	a2, a2, 0
400d0973:	991b      	addi.n	a9, a9, 1
400d0975:	0020c0        	memw
400d0978:	0829      	s32i.n	a2, a8, 0
400d097a:	f039a7        	bltu	a9, a10, 400d096e <uart_hal_write_txfifo+0x4a>
400d097d:	f01d      	retw.n
	...

400d0980 <uart_hal_read_rxfifo>:
400d0980:	006136        	entry	a1, 48
400d0983:	0488      	l32i.n	a8, a4, 0
400d0985:	0218a6        	blti	a8, 1, 400d098b <uart_hal_read_rxfifo+0xb>
400d0988:	002006        	j	400d0a0c <uart_hal_read_rxfifo+0x8c>
400d098b:	0288      	l32i.n	a8, a2, 0
400d098d:	0020c0        	memw
400d0990:	7898      	l32i.n	a9, a8, 28
400d0992:	0020c0        	memw
400d0995:	0199      	s32i.n	a9, a1, 0
400d0997:	0020c0        	memw
400d099a:	000192        	l8ui	a9, a1, 0
400d099d:	0020c0        	memw
400d09a0:	182882        	l32i	a8, a8, 96
400d09a3:	749090        	extui	a9, a9, 0, 8
400d09a6:	0020c0        	memw
400d09a9:	1189      	s32i.n	a8, a1, 4
400d09ab:	0020c0        	memw
400d09ae:	1188      	l32i.n	a8, a1, 4
400d09b0:	0020c0        	memw
400d09b3:	11a8      	l32i.n	a10, a1, 4
400d09b5:	a48d80        	extui	a8, a8, 13, 11
400d09b8:	a4a2a0        	extui	a10, a10, 2, 11
400d09bb:	12ba87        	bgeu	a10, a8, 400d09d1 <uart_hal_read_rxfifo+0x51>
400d09be:	0020c0        	memw
400d09c1:	1188      	l32i.n	a8, a1, 4
400d09c3:	0020c0        	memw
400d09c6:	1198      	l32i.n	a9, a1, 4
400d09c8:	a48d80        	extui	a8, a8, 13, 11
400d09cb:	a49290        	extui	a9, a9, 2, 11
400d09ce:	0009c6        	j	400d09f9 <uart_hal_read_rxfifo+0x79>
400d09d1:	0020c0        	memw
400d09d4:	11a8      	l32i.n	a10, a1, 4
400d09d6:	0020c0        	memw
400d09d9:	1188      	l32i.n	a8, a1, 4
400d09db:	a4ada0        	extui	a10, a10, 13, 11
400d09de:	a48280        	extui	a8, a8, 2, 11
400d09e1:	1bba87        	bgeu	a10, a8, 400d0a00 <uart_hal_read_rxfifo+0x80>
400d09e4:	0020c0        	memw
400d09e7:	1188      	l32i.n	a8, a1, 4
400d09e9:	0020c0        	memw
400d09ec:	1198      	l32i.n	a9, a1, 4
400d09ee:	a48d80        	extui	a8, a8, 13, 11
400d09f1:	80a0a2        	movi	a10, 128
400d09f4:	a49290        	extui	a9, a9, 2, 11
400d09f7:	88aa      	add.n	a8, a8, a10
400d09f9:	c08890        	sub	a8, a8, a9
400d09fc:	000286        	j	400d0a0a <uart_hal_read_rxfifo+0x8a>
400d09ff:	00          	.byte 00
400d0a00:	180c      	movi.n	a8, 1
400d0a02:	0a0c      	movi.n	a10, 0
400d0a04:	838a90        	moveqz	a8, a10, a9
400d0a07:	118890        	slli	a8, a8, 7
400d0a0a:	0489      	s32i.n	a8, a4, 0
400d0a0c:	0228      	l32i.n	a2, a2, 0
400d0a0e:	fd9f81        	l32r	a8, 400d008c <_image_irom_vaddr+0x6c> (3ff40000 <UART0>)
400d0a11:	0448      	l32i.n	a4, a4, 0
400d0a13:	fd9b91        	l32r	a9, 400d0080 <_image_irom_vaddr+0x60> (3ff40000 <UART0>)
400d0a16:	0b1287        	beq	a2, a8, 400d0a25 <uart_hal_read_rxfifo+0xa5>
400d0a19:	fd9d81        	l32r	a8, 400d0090 <_image_irom_vaddr+0x70> (3ff50000 <UART1>)
400d0a1c:	fd9b91        	l32r	a9, 400d0088 <_image_irom_vaddr+0x68> (3ff6e000 <LEDC+0x15000>)
400d0a1f:	029287        	bne	a2, a8, 400d0a25 <uart_hal_read_rxfifo+0xa5>
400d0a22:	fd9891        	l32r	a9, 400d0084 <_image_irom_vaddr+0x64> (3ff50000 <UART1>)
400d0a25:	080c      	movi.n	a8, 0
400d0a27:	000346        	j	400d0a38 <uart_hal_read_rxfifo+0xb8>
400d0a2a:	00          	.byte 00
400d0a2b:	00          	.byte 00
400d0a2c:	0020c0        	memw
400d0a2f:	09a8      	l32i.n	a10, a9, 0
400d0a31:	238a      	add.n	a2, a3, a8
400d0a33:	0042a2        	s8i	a10, a2, 0
400d0a36:	881b      	addi.n	a8, a8, 1
400d0a38:	f09487        	bne	a4, a8, 400d0a2c <uart_hal_read_rxfifo+0xac>
400d0a3b:	f01d      	retw.n
400d0a3d:	000000        	ill

400d0a40 <ledc_hal_set_hpoint>:
400d0a40:	004136        	entry	a1, 32
400d0a43:	1288      	l32i.n	a8, a2, 4
400d0a45:	0298      	l32i.n	a9, a2, 0
400d0a47:	a08880        	addx4	a8, a8, a8
400d0a4a:	1188b0        	slli	a8, a8, 5
400d0a4d:	a03330        	addx4	a3, a3, a3
400d0a50:	a03380        	addx4	a3, a3, a8
400d0a53:	fd9281        	l32r	a8, 400d009c <_image_irom_vaddr+0x7c> (fffff <CONFIG_XTENSA_CCOUNT_HZ+0xbdbf>)
400d0a56:	993a      	add.n	a9, a9, a3
400d0a58:	104480        	and	a4, a4, a8
400d0a5b:	fa7c      	movi.n	a10, -1
400d0a5d:	0020c0        	memw
400d0a60:	1988      	l32i.n	a8, a9, 4
400d0a62:	01aac0        	slli	a10, a10, 20
400d0a65:	1088a0        	and	a8, a8, a10
400d0a68:	208840        	or	a8, a8, a4
400d0a6b:	0020c0        	memw
400d0a6e:	1989      	s32i.n	a8, a9, 4
400d0a70:	f01d      	retw.n
	...

400d0a74 <ledc_hal_set_duty_direction>:
400d0a74:	004136        	entry	a1, 32
400d0a77:	1288      	l32i.n	a8, a2, 4
400d0a79:	0298      	l32i.n	a9, a2, 0
400d0a7b:	a08880        	addx4	a8, a8, a8
400d0a7e:	1188b0        	slli	a8, a8, 5
400d0a81:	a03330        	addx4	a3, a3, a3
400d0a84:	a03380        	addx4	a3, a3, a8
400d0a87:	993a      	add.n	a9, a9, a3
400d0a89:	0020c0        	memw
400d0a8c:	3988      	l32i.n	a8, a9, 12
400d0a8e:	fd8421        	l32r	a2, 400d00a0 <_image_irom_vaddr+0x80> (bfffffff <_rtc_bss_end+0x6fffffff>)
400d0a91:	044040        	extui	a4, a4, 0, 1
400d0a94:	014420        	slli	a4, a4, 30
400d0a97:	108820        	and	a8, a8, a2
400d0a9a:	208840        	or	a8, a8, a4
400d0a9d:	0020c0        	memw
400d0aa0:	3989      	s32i.n	a8, a9, 12
400d0aa2:	f01d      	retw.n

400d0aa4 <ledc_hal_set_duty_num>:
400d0aa4:	004136        	entry	a1, 32
400d0aa7:	1288      	l32i.n	a8, a2, 4
400d0aa9:	0298      	l32i.n	a9, a2, 0
400d0aab:	a08880        	addx4	a8, a8, a8
400d0aae:	1188b0        	slli	a8, a8, 5
400d0ab1:	a03330        	addx4	a3, a3, a3
400d0ab4:	a03380        	addx4	a3, a3, a8
400d0ab7:	993a      	add.n	a9, a9, a3
400d0ab9:	0020c0        	memw
400d0abc:	3988      	l32i.n	a8, a9, 12
400d0abe:	fd7921        	l32r	a2, 400d00a4 <_image_irom_vaddr+0x84> (c00fffff <_rtc_bss_end+0x700fffff>)
400d0ac1:	944040        	extui	a4, a4, 0, 10
400d0ac4:	0144c0        	slli	a4, a4, 20
400d0ac7:	108820        	and	a8, a8, a2
400d0aca:	208840        	or	a8, a8, a4
400d0acd:	0020c0        	memw
400d0ad0:	3989      	s32i.n	a8, a9, 12
400d0ad2:	f01d      	retw.n

400d0ad4 <ledc_hal_set_duty_cycle>:
400d0ad4:	004136        	entry	a1, 32
400d0ad7:	1288      	l32i.n	a8, a2, 4
400d0ad9:	0298      	l32i.n	a9, a2, 0
400d0adb:	a08880        	addx4	a8, a8, a8
400d0ade:	1188b0        	slli	a8, a8, 5
400d0ae1:	a03330        	addx4	a3, a3, a3
400d0ae4:	a03380        	addx4	a3, a3, a8
400d0ae7:	993a      	add.n	a9, a9, a3
400d0ae9:	0020c0        	memw
400d0aec:	3988      	l32i.n	a8, a9, 12
400d0aee:	fd6e21        	l32r	a2, 400d00a8 <_image_irom_vaddr+0x88> (fff003ff <_rtc_bss_end+0xaff003ff>)
400d0af1:	944040        	extui	a4, a4, 0, 10
400d0af4:	114460        	slli	a4, a4, 10
400d0af7:	108820        	and	a8, a8, a2
400d0afa:	208840        	or	a8, a8, a4
400d0afd:	0020c0        	memw
400d0b00:	3989      	s32i.n	a8, a9, 12
400d0b02:	f01d      	retw.n

400d0b04 <ledc_hal_init>:
400d0b04:	004136        	entry	a1, 32
400d0b07:	fd6981        	l32r	a8, 400d00ac <_image_irom_vaddr+0x8c> (3ff59000 <LEDC>)
400d0b0a:	1239      	s32i.n	a3, a2, 4
400d0b0c:	0289      	s32i.n	a8, a2, 0
400d0b0e:	f01d      	retw.n

400d0b10 <rtc_clk_cpu_freq_to_pll_mhz>:
400d0b10:	004136        	entry	a1, 32
400d0b13:	fd67a1        	l32r	a10, 400d00b0 <_image_irom_vaddr+0x90> (3ff5a014 <LEDC+0x1014>)
400d0b16:	790c      	movi.n	a9, 7
400d0b18:	0020c0        	memw
400d0b1b:	0a38      	l32i.n	a3, a10, 0
400d0b1d:	0b5c      	movi.n	a11, 80
400d0b1f:	153630        	extui	a3, a3, 22, 2
400d0b22:	c03930        	sub	a3, a9, a3
400d0b25:	080c      	movi.n	a8, 0
400d0b27:	2e12b7        	beq	a2, a11, 400d0b59 <rtc_clk_cpu_freq_to_pll_mhz+0x49>
400d0b2a:	a0a0b2        	movi	a11, 160
400d0b2d:	180c      	movi.n	a8, 1
400d0b2f:	2612b7        	beq	a2, a11, 400d0b59 <rtc_clk_cpu_freq_to_pll_mhz+0x49>
400d0b32:	f0a082        	movi	a8, 240
400d0b35:	0f9287        	bne	a2, a8, 400d0b48 <rtc_clk_cpu_freq_to_pll_mhz+0x38>
400d0b38:	0020c0        	memw
400d0b3b:	0a38      	l32i.n	a3, a10, 0
400d0b3d:	280c      	movi.n	a8, 2
400d0b3f:	153630        	extui	a3, a3, 22, 2
400d0b42:	c03930        	sub	a3, a9, a3
400d0b45:	000406        	j	400d0b59 <rtc_clk_cpu_freq_to_pll_mhz+0x49>
400d0b48:	fd5bb1        	l32r	a11, 400d00b4 <_image_irom_vaddr+0x94> (3f400a44 <levels$0+0x70>)
400d0b4b:	fd5ba1        	l32r	a10, 400d00b8 <_image_irom_vaddr+0x98> (3f400a4c <levels$0+0x78>)
400d0b4e:	fd6281        	l32r	a8, 400d00d8 <_image_irom_vaddr+0xb8> (40007d54 <esp_rom_printf>)
400d0b51:	0008e0        	callx8	a8
400d0b54:	00e325        	call8	400d1988 <abort>
400d0b57:	080c      	movi.n	a8, 0
400d0b59:	fd5891        	l32r	a9, 400d00bc <_image_irom_vaddr+0x9c> (3ff0003c <__device_handles_end+0xaff146>)
400d0b5c:	fd5aa1        	l32r	a10, 400d00c4 <_image_irom_vaddr+0xa4> (ffffc7ff <_rtc_bss_end+0xafffc7ff>)
400d0b5f:	0020c0        	memw
400d0b62:	006982        	s32i	a8, a9, 0
400d0b65:	fd5691        	l32r	a9, 400d00c0 <_image_irom_vaddr+0xa0> (3ff4807c <GPIO+0x407c>)
400d0b68:	113350        	slli	a3, a3, 11
400d0b6b:	0020c0        	memw
400d0b6e:	002982        	l32i	a8, a9, 0
400d0b71:	1088a0        	and	a8, a8, a10
400d0b74:	203830        	or	a3, a8, a3
400d0b77:	0020c0        	memw
400d0b7a:	0939      	s32i.n	a3, a9, 0
400d0b7c:	fd5391        	l32r	a9, 400d00c8 <_image_irom_vaddr+0xa8> (3ff48070 <GPIO+0x4070>)
400d0b7f:	fd5381        	l32r	a8, 400d00cc <_image_irom_vaddr+0xac> (e7ffffff <_rtc_bss_end+0x97ffffff>)
400d0b82:	0020c0        	memw
400d0b85:	0938      	l32i.n	a3, a9, 0
400d0b87:	02ad      	mov.n	a10, a2
400d0b89:	103380        	and	a3, a3, a8
400d0b8c:	180c      	movi.n	a8, 1
400d0b8e:	018850        	slli	a8, a8, 27
400d0b91:	203380        	or	a3, a3, a8
400d0b94:	0020c0        	memw
400d0b97:	0939      	s32i.n	a3, a9, 0
400d0b99:	fd4e81        	l32r	a8, 400d00d4 <_image_irom_vaddr+0xb4> (4c4b4c4b <_etext+0xc3e186b>)
400d0b9c:	fd4d31        	l32r	a3, 400d00d0 <_image_irom_vaddr+0xb0> (3ff480b4 <GPIO+0x40b4>)
400d0b9f:	0020c0        	memw
400d0ba2:	0389      	s32i.n	a8, a3, 0
400d0ba4:	afa025        	call8	400805a8 <ets_update_cpu_frequency>
400d0ba7:	0086a5        	call8	400d1410 <rtc_clk_wait_for_slow_cycle>
400d0baa:	f01d      	retw.n

400d0bac <rtc_clk_bbpll_disable>:
400d0bac:	004136        	entry	a1, 32
400d0baf:	fd4b81        	l32r	a8, 400d00dc <_image_irom_vaddr+0xbc> (3ff48000 <GPIO+0x4000>)
400d0bb2:	40a5a2        	movi	a10, 0x540
400d0bb5:	0020c0        	memw
400d0bb8:	0898      	l32i.n	a9, a8, 0
400d0bba:	2099a0        	or	a9, a9, a10
400d0bbd:	0020c0        	memw
400d0bc0:	0899      	s32i.n	a9, a8, 0
400d0bc2:	fd4791        	l32r	a9, 400d00e0 <_image_irom_vaddr+0xc0> (3ffb0440 <s_cur_pll_freq>)
400d0bc5:	0a0c      	movi.n	a10, 0
400d0bc7:	09a9      	s32i.n	a10, a9, 0
400d0bc9:	fd4691        	l32r	a9, 400d00e4 <_image_irom_vaddr+0xc4> (3ff48030 <GPIO+0x4030>)
400d0bcc:	0020c0        	memw
400d0bcf:	0998      	l32i.n	a9, a9, 0
400d0bd1:	117977        	bbci	a9, 23, 400d0be6 <rtc_clk_bbpll_disable+0x3a>
400d0bd4:	0020c0        	memw
400d0bd7:	0898      	l32i.n	a9, a8, 0
400d0bd9:	1a0c      	movi.n	a10, 1
400d0bdb:	01aae0        	slli	a10, a10, 18
400d0bde:	2099a0        	or	a9, a9, a10
400d0be1:	0020c0        	memw
400d0be4:	0899      	s32i.n	a9, a8, 0
400d0be6:	f01d      	retw.n

400d0be8 <rtc_clk_32k_enable_common$constprop$0>:
400d0be8:	004136        	entry	a1, 32
400d0beb:	fd3f81        	l32r	a8, 400d00e8 <_image_irom_vaddr+0xc8> (3ff4848c <GPIO+0x448c>)
400d0bee:	fd3fa1        	l32r	a10, 400d00ec <_image_irom_vaddr+0xcc> (e73ff7df <_rtc_bss_end+0x973ff7df>)
400d0bf1:	0020c0        	memw
400d0bf4:	0898      	l32i.n	a9, a8, 0
400d0bf6:	0122c0        	slli	a2, a2, 20
400d0bf9:	1099a0        	and	a9, a9, a10
400d0bfc:	0020c0        	memw
400d0bff:	0899      	s32i.n	a9, a8, 0
400d0c01:	0020c0        	memw
400d0c04:	0898      	l32i.n	a9, a8, 0
400d0c06:	3a0c      	movi.n	a10, 3
400d0c08:	01aaf0        	slli	a10, a10, 17
400d0c0b:	2099a0        	or	a9, a9, a10
400d0c0e:	0020c0        	memw
400d0c11:	0899      	s32i.n	a9, a8, 0
400d0c13:	0020c0        	memw
400d0c16:	0898      	l32i.n	a9, a8, 0
400d0c18:	fd36a1        	l32r	a10, 400d00f0 <_image_irom_vaddr+0xd0> (ffcfffff <_rtc_bss_end+0xafcfffff>)
400d0c1b:	333a      	add.n	a3, a3, a3
400d0c1d:	1099a0        	and	a9, a9, a10
400d0c20:	209920        	or	a9, a9, a2
400d0c23:	0020c0        	memw
400d0c26:	0899      	s32i.n	a9, a8, 0
400d0c28:	0020c0        	memw
400d0c2b:	0898      	l32i.n	a9, a8, 0
400d0c2d:	8a1c      	movi.n	a10, 24
400d0c2f:	2099a0        	or	a9, a9, a10
400d0c32:	0020c0        	memw
400d0c35:	0899      	s32i.n	a9, a8, 0
400d0c37:	0020c0        	memw
400d0c3a:	0898      	l32i.n	a9, a8, 0
400d0c3c:	9a7c      	movi.n	a10, -7
400d0c3e:	1099a0        	and	a9, a9, a10
400d0c41:	209930        	or	a9, a9, a3
400d0c44:	0020c0        	memw
400d0c47:	0899      	s32i.n	a9, a8, 0
400d0c49:	0020c0        	memw
400d0c4c:	0898      	l32i.n	a9, a8, 0
400d0c4e:	1a0c      	movi.n	a10, 1
400d0c50:	01aad0        	slli	a10, a10, 19
400d0c53:	2099a0        	or	a9, a9, a10
400d0c56:	0020c0        	memw
400d0c59:	0899      	s32i.n	a9, a8, 0
400d0c5b:	f01d      	retw.n
400d0c5d:	000000        	ill

400d0c60 <rtc_clk_32k_enable>:
400d0c60:	004136        	entry	a1, 32
400d0c63:	742020        	extui	a2, a2, 0, 8
400d0c66:	a28c      	beqz.n	a2, 400d0c74 <rtc_clk_32k_enable+0x14>
400d0c68:	0b0c      	movi.n	a11, 0
400d0c6a:	01a0a2        	movi	a10, 1
400d0c6d:	fff7a5        	call8	400d0be8 <rtc_clk_32k_enable_common$constprop$0>
400d0c70:	0008c6        	j	400d0c97 <rtc_clk_32k_enable+0x37>
400d0c73:	00          	.byte 00
400d0c74:	fd1d81        	l32r	a8, 400d00e8 <_image_irom_vaddr+0xc8> (3ff4848c <GPIO+0x448c>)
400d0c77:	fd1fa1        	l32r	a10, 400d00f4 <_image_irom_vaddr+0xd4> (fff7ffff <_rtc_bss_end+0xaff7ffff>)
400d0c7a:	0020c0        	memw
400d0c7d:	0898      	l32i.n	a9, a8, 0
400d0c7f:	1099a0        	and	a9, a9, a10
400d0c82:	0020c0        	memw
400d0c85:	0899      	s32i.n	a9, a8, 0
400d0c87:	0020c0        	memw
400d0c8a:	0898      	l32i.n	a9, a8, 0
400d0c8c:	fd1ba1        	l32r	a10, 400d00f8 <_image_irom_vaddr+0xd8> (fff9ffff <_rtc_bss_end+0xaff9ffff>)
400d0c8f:	1099a0        	and	a9, a9, a10
400d0c92:	0020c0        	memw
400d0c95:	0899      	s32i.n	a9, a8, 0
400d0c97:	f01d      	retw.n
400d0c99:	000000        	ill

400d0c9c <rtc_clk_8m_enable>:
400d0c9c:	004136        	entry	a1, 32
400d0c9f:	fd0a81        	l32r	a8, 400d00c8 <_image_irom_vaddr+0xa8> (3ff48070 <GPIO+0x4070>)
400d0ca2:	742020        	extui	a2, a2, 0, 8
400d0ca5:	0020c0        	memw
400d0ca8:	0898      	l32i.n	a9, a8, 0
400d0caa:	fd14a1        	l32r	a10, 400d00fc <_image_irom_vaddr+0xdc> (3ff4801c <GPIO+0x401c>)
400d0cad:	743030        	extui	a3, a3, 0, 8
400d0cb0:	047216        	beqz	a2, 400d0cfb <rtc_clk_8m_enable+0x5f>
400d0cb3:	bfafb2        	movi	a11, -65
400d0cb6:	1099b0        	and	a9, a9, a11
400d0cb9:	0020c0        	memw
400d0cbc:	0899      	s32i.n	a9, a8, 0
400d0cbe:	0020c0        	memw
400d0cc1:	0a98      	l32i.n	a9, a10, 0
400d0cc3:	fd0fb1        	l32r	a11, 400d0100 <_image_irom_vaddr+0xe0> (ffffc03f <_rtc_bss_end+0xafffc03f>)
400d0cc6:	1099b0        	and	a9, a9, a11
400d0cc9:	0b4c      	movi.n	a11, 64
400d0ccb:	2099b0        	or	a9, a9, a11
400d0cce:	0020c0        	memw
400d0cd1:	0a99      	s32i.n	a9, a10, 0
400d0cd3:	0020c0        	memw
400d0cd6:	0898      	l32i.n	a9, a8, 0
400d0cd8:	938c      	beqz.n	a3, 400d0ce5 <rtc_clk_8m_enable+0x49>
400d0cda:	7fafa2        	movi	a10, -129
400d0cdd:	1099a0        	and	a9, a9, a10
400d0ce0:	0001c6        	j	400d0ceb <rtc_clk_8m_enable+0x4f>
400d0ce3:	00          	.byte 00
400d0ce4:	00          	.byte 00
400d0ce5:	80a0a2        	movi	a10, 128
400d0ce8:	2099a0        	or	a9, a9, a10
400d0ceb:	0020c0        	memw
400d0cee:	0899      	s32i.n	a9, a8, 0
400d0cf0:	2a3c      	movi.n	a10, 50
400d0cf2:	fd0481        	l32r	a8, 400d0104 <_image_irom_vaddr+0xe4> (40008534 <esp_rom_delay_us>)
400d0cf5:	0008e0        	callx8	a8
400d0cf8:	0007c6        	j	400d0d1b <rtc_clk_8m_enable+0x7f>
400d0cfb:	0b4c      	movi.n	a11, 64
400d0cfd:	2099b0        	or	a9, a9, a11
400d0d00:	0020c0        	memw
400d0d03:	0899      	s32i.n	a9, a8, 0
400d0d05:	0020c0        	memw
400d0d08:	0a88      	l32i.n	a8, a10, 0
400d0d0a:	fcfd91        	l32r	a9, 400d0100 <_image_irom_vaddr+0xe0> (ffffc03f <_rtc_bss_end+0xafffc03f>)
400d0d0d:	108890        	and	a8, a8, a9
400d0d10:	00a592        	movi	a9, 0x500
400d0d13:	208890        	or	a8, a8, a9
400d0d16:	0020c0        	memw
400d0d19:	0a89      	s32i.n	a8, a10, 0
400d0d1b:	f01d      	retw.n
400d0d1d:	000000        	ill

400d0d20 <rtc_clk_8m_enabled>:
400d0d20:	004136        	entry	a1, 32
400d0d23:	fce921        	l32r	a2, 400d00c8 <_image_irom_vaddr+0xa8> (3ff48070 <GPIO+0x4070>)
400d0d26:	0020c0        	memw
400d0d29:	0288      	l32i.n	a8, a2, 0
400d0d2b:	120c      	movi.n	a2, 1
400d0d2d:	048680        	extui	a8, a8, 6, 1
400d0d30:	302820        	xor	a2, a8, a2
400d0d33:	f01d      	retw.n
400d0d35:	000000        	ill

400d0d38 <rtc_clk_8md256_enabled>:
400d0d38:	004136        	entry	a1, 32
400d0d3b:	fce321        	l32r	a2, 400d00c8 <_image_irom_vaddr+0xa8> (3ff48070 <GPIO+0x4070>)
400d0d3e:	0020c0        	memw
400d0d41:	0288      	l32i.n	a8, a2, 0
400d0d43:	120c      	movi.n	a2, 1
400d0d45:	048780        	extui	a8, a8, 7, 1
400d0d48:	302820        	xor	a2, a8, a2
400d0d4b:	f01d      	retw.n
400d0d4d:	000000        	ill

400d0d50 <rtc_clk_slow_freq_set>:
400d0d50:	004136        	entry	a1, 32
400d0d53:	fcdd91        	l32r	a9, 400d00c8 <_image_irom_vaddr+0xa8> (3ff48070 <GPIO+0x4070>)
400d0d56:	fceca1        	l32r	a10, 400d0108 <_image_irom_vaddr+0xe8> (3fffffff <dram0_seg_1_heap+0x199cf>)
400d0d59:	0020c0        	memw
400d0d5c:	0988      	l32i.n	a8, a9, 0
400d0d5e:	0b0c      	movi.n	a11, 0
400d0d60:	1088a0        	and	a8, a8, a10
400d0d63:	01a220        	slli	a10, a2, 30
400d0d66:	2088a0        	or	a8, a8, a10
400d0d69:	0020c0        	memw
400d0d6c:	0989      	s32i.n	a8, a9, 0
400d0d6e:	0020c0        	memw
400d0d71:	09a8      	l32i.n	a10, a9, 0
400d0d73:	220b      	addi.n	a2, a2, -1
400d0d75:	180c      	movi.n	a8, 1
400d0d77:	938b20        	movnez	a8, a11, a2
400d0d7a:	ffae22        	movi	a2, 0xfffffeff
400d0d7d:	10aa20        	and	a10, a10, a2
400d0d80:	118880        	slli	a8, a8, 8
400d0d83:	2088a0        	or	a8, a8, a10
400d0d86:	0020c0        	memw
400d0d89:	0989      	s32i.n	a8, a9, 0
400d0d8b:	2ca1a2        	movi	a10, 0x12c
400d0d8e:	fcdd81        	l32r	a8, 400d0104 <_image_irom_vaddr+0xe4> (40008534 <esp_rom_delay_us>)
400d0d91:	0008e0        	callx8	a8
400d0d94:	f01d      	retw.n
	...

400d0d98 <rtc_clk_slow_freq_get>:
400d0d98:	004136        	entry	a1, 32
400d0d9b:	fccb21        	l32r	a2, 400d00c8 <_image_irom_vaddr+0xa8> (3ff48070 <GPIO+0x4070>)
400d0d9e:	0020c0        	memw
400d0da1:	0228      	l32i.n	a2, a2, 0
400d0da3:	152e20        	extui	a2, a2, 30, 2
400d0da6:	f01d      	retw.n

400d0da8 <rtc_clk_fast_freq_set>:
400d0da8:	004136        	entry	a1, 32
400d0dab:	fcc7a1        	l32r	a10, 400d00c8 <_image_irom_vaddr+0xa8> (3ff48070 <GPIO+0x4070>)
400d0dae:	190c      	movi.n	a9, 1
400d0db0:	019930        	slli	a9, a9, 29
400d0db3:	012230        	slli	a2, a2, 29
400d0db6:	0020c0        	memw
400d0db9:	0a88      	l32i.n	a8, a10, 0
400d0dbb:	102290        	and	a2, a2, a9
400d0dbe:	fcd391        	l32r	a9, 400d010c <_image_irom_vaddr+0xec> (dfffffff <_rtc_bss_end+0x8fffffff>)
400d0dc1:	108890        	and	a8, a8, a9
400d0dc4:	202280        	or	a2, a2, a8
400d0dc7:	0020c0        	memw
400d0dca:	0a29      	s32i.n	a2, a10, 0
400d0dcc:	3a0c      	movi.n	a10, 3
400d0dce:	fccd81        	l32r	a8, 400d0104 <_image_irom_vaddr+0xe4> (40008534 <esp_rom_delay_us>)
400d0dd1:	0008e0        	callx8	a8
400d0dd4:	f01d      	retw.n
	...

400d0dd8 <rtc_clk_fast_freq_get>:
400d0dd8:	004136        	entry	a1, 32
400d0ddb:	fcbb21        	l32r	a2, 400d00c8 <_image_irom_vaddr+0xa8> (3ff48070 <GPIO+0x4070>)
400d0dde:	0020c0        	memw
400d0de1:	0228      	l32i.n	a2, a2, 0
400d0de3:	052d20        	extui	a2, a2, 29, 1
400d0de6:	f01d      	retw.n

400d0de8 <rtc_clk_bbpll_configure>:
400d0de8:	006136        	entry	a1, 48
400d0deb:	0139      	s32i.n	a3, a1, 0
400d0ded:	40a162        	movi	a6, 0x140
400d0df0:	fcb451        	l32r	a5, 400d00c0 <_image_irom_vaddr+0xa0> (3ff4807c <GPIO+0x407c>)
400d0df3:	fcaf41        	l32r	a4, 400d00b0 <_image_irom_vaddr+0x90> (3ff5a014 <LEDC+0x1014>)
400d0df6:	e8c222        	addi	a2, a2, -24
400d0df9:	7f9367        	bne	a3, a6, 400d0e7c <rtc_clk_bbpll_configure+0x94>
400d0dfc:	0020c0        	memw
400d0dff:	0568      	l32i.n	a6, a5, 0
400d0e01:	0020c0        	memw
400d0e04:	0478      	l32i.n	a7, a4, 0
400d0e06:	740c      	movi.n	a4, 7
400d0e08:	157670        	extui	a7, a7, 22, 2
400d0e0b:	c04470        	sub	a4, a4, a7
400d0e0e:	fcad71        	l32r	a7, 400d00c4 <_image_irom_vaddr+0xa4> (ffffc7ff <_rtc_bss_end+0xafffc7ff>)
400d0e11:	114450        	slli	a4, a4, 11
400d0e14:	106670        	and	a6, a6, a7
400d0e17:	204460        	or	a4, a4, a6
400d0e1a:	0020c0        	memw
400d0e1d:	0549      	s32i.n	a4, a5, 0
400d0e1f:	041c      	movi.n	a4, 16
400d0e21:	333427        	bltu	a4, a2, 400d0e58 <rtc_clk_bbpll_configure+0x70>
400d0e24:	fcbb41        	l32r	a4, 400d0110 <_image_irom_vaddr+0xf0> (3f400afa <CSWTCH$43>)
400d0e27:	fcbc51        	l32r	a5, 400d0118 <_image_irom_vaddr+0xf8> (3f400ad8 <CSWTCH$45>)
400d0e2a:	442a      	add.n	a4, a4, a2
400d0e2c:	552a      	add.n	a5, a5, a2
400d0e2e:	000462        	l8ui	a6, a4, 0
400d0e31:	000572        	l8ui	a7, a5, 0
400d0e34:	fcb841        	l32r	a4, 400d0114 <_image_irom_vaddr+0xf4> (3f400ae9 <CSWTCH$44>)
400d0e37:	fcb951        	l32r	a5, 400d011c <_image_irom_vaddr+0xfc> (3f400ac7 <CSWTCH$46>)
400d0e3a:	fcb981        	l32r	a8, 400d0120 <_image_irom_vaddr+0x100> (3f400ab6 <CSWTCH$47>)
400d0e3d:	fcb991        	l32r	a9, 400d0124 <_image_irom_vaddr+0x104> (3f400aa5 <CSWTCH$48>)
400d0e40:	442a      	add.n	a4, a4, a2
400d0e42:	552a      	add.n	a5, a5, a2
400d0e44:	882a      	add.n	a8, a8, a2
400d0e46:	992a      	add.n	a9, a9, a2
400d0e48:	000442        	l8ui	a4, a4, 0
400d0e4b:	000552        	l8ui	a5, a5, 0
400d0e4e:	000832        	l8ui	a3, a8, 0
400d0e51:	000922        	l8ui	a2, a9, 0
400d0e54:	000346        	j	400d0e65 <rtc_clk_bbpll_configure+0x7d>
400d0e57:	00          	.byte 00
400d0e58:	020c      	movi.n	a2, 0
400d0e5a:	023d      	mov.n	a3, a2
400d0e5c:	025d      	mov.n	a5, a2
400d0e5e:	470c      	movi.n	a7, 4
400d0e60:	e0a042        	movi	a4, 224
400d0e63:	c60c      	movi.n	a6, 12
400d0e65:	3d4c      	movi.n	a13, 67
400d0e67:	bc0c      	movi.n	a12, 11
400d0e69:	4b0c      	movi.n	a11, 4
400d0e6b:	66a0a2        	movi	a10, 102
400d0e6e:	fcaf81        	l32r	a8, 400d012c <_image_irom_vaddr+0x10c> (400041a4 <rom_i2c_writeReg>)
400d0e71:	0008e0        	callx8	a8
400d0e74:	84a0d2        	movi	a13, 132
400d0e77:	002146        	j	400d0f00 <rtc_clk_bbpll_configure+0x118>
400d0e7a:	00          	.byte 00
400d0e7b:	00          	.byte 00
400d0e7c:	0020c0        	memw
400d0e7f:	0568      	l32i.n	a6, a5, 0
400d0e81:	0020c0        	memw
400d0e84:	0478      	l32i.n	a7, a4, 0
400d0e86:	740c      	movi.n	a4, 7
400d0e88:	157670        	extui	a7, a7, 22, 2
400d0e8b:	c04470        	sub	a4, a4, a7
400d0e8e:	fc8d71        	l32r	a7, 400d00c4 <_image_irom_vaddr+0xa4> (ffffc7ff <_rtc_bss_end+0xafffc7ff>)
400d0e91:	114450        	slli	a4, a4, 11
400d0e94:	106670        	and	a6, a6, a7
400d0e97:	204460        	or	a4, a4, a6
400d0e9a:	0020c0        	memw
400d0e9d:	0549      	s32i.n	a4, a5, 0
400d0e9f:	3a0c      	movi.n	a10, 3
400d0ea1:	041c      	movi.n	a4, 16
400d0ea3:	fc9881        	l32r	a8, 400d0104 <_image_irom_vaddr+0xe4> (40008534 <esp_rom_delay_us>)
400d0ea6:	0008e0        	callx8	a8
400d0ea9:	333427        	bltu	a4, a2, 400d0ee0 <rtc_clk_bbpll_configure+0xf8>
400d0eac:	fc9941        	l32r	a4, 400d0110 <_image_irom_vaddr+0xf0> (3f400afa <CSWTCH$43>)
400d0eaf:	fc9a51        	l32r	a5, 400d0118 <_image_irom_vaddr+0xf8> (3f400ad8 <CSWTCH$45>)
400d0eb2:	442a      	add.n	a4, a4, a2
400d0eb4:	552a      	add.n	a5, a5, a2
400d0eb6:	000462        	l8ui	a6, a4, 0
400d0eb9:	000572        	l8ui	a7, a5, 0
400d0ebc:	fc9b41        	l32r	a4, 400d0128 <_image_irom_vaddr+0x108> (3f400a94 <CSWTCH$50>)
400d0ebf:	fc9751        	l32r	a5, 400d011c <_image_irom_vaddr+0xfc> (3f400ac7 <CSWTCH$46>)
400d0ec2:	fc9781        	l32r	a8, 400d0120 <_image_irom_vaddr+0x100> (3f400ab6 <CSWTCH$47>)
400d0ec5:	fc9791        	l32r	a9, 400d0124 <_image_irom_vaddr+0x104> (3f400aa5 <CSWTCH$48>)
400d0ec8:	442a      	add.n	a4, a4, a2
400d0eca:	552a      	add.n	a5, a5, a2
400d0ecc:	882a      	add.n	a8, a8, a2
400d0ece:	992a      	add.n	a9, a9, a2
400d0ed0:	000442        	l8ui	a4, a4, 0
400d0ed3:	000552        	l8ui	a5, a5, 0
400d0ed6:	000832        	l8ui	a3, a8, 0
400d0ed9:	000922        	l8ui	a2, a9, 0
400d0edc:	000346        	j	400d0eed <rtc_clk_bbpll_configure+0x105>
400d0edf:	00          	.byte 00
400d0ee0:	020c      	movi.n	a2, 0
400d0ee2:	023d      	mov.n	a3, a2
400d0ee4:	025d      	mov.n	a5, a2
400d0ee6:	470c      	movi.n	a7, 4
400d0ee8:	e0a042        	movi	a4, 224
400d0eeb:	c60c      	movi.n	a6, 12
400d0eed:	c3a0d2        	movi	a13, 195
400d0ef0:	bc0c      	movi.n	a12, 11
400d0ef2:	4b0c      	movi.n	a11, 4
400d0ef4:	66a0a2        	movi	a10, 102
400d0ef7:	fc8d81        	l32r	a8, 400d012c <_image_irom_vaddr+0x10c> (400041a4 <rom_i2c_writeReg>)
400d0efa:	0008e0        	callx8	a8
400d0efd:	74a0d2        	movi	a13, 116
400d0f00:	09a0c2        	movi	a12, 9
400d0f03:	04a0b2        	movi	a11, 4
400d0f06:	66a0a2        	movi	a10, 102
400d0f09:	115590        	slli	a5, a5, 7
400d0f0c:	1177c0        	slli	a7, a7, 4
400d0f0f:	fc8781        	l32r	a8, 400d012c <_image_irom_vaddr+0x10c> (400041a4 <rom_i2c_writeReg>)
400d0f12:	0008e0        	callx8	a8
400d0f15:	205570        	or	a5, a5, a7
400d0f18:	20d650        	or	a13, a6, a5
400d0f1b:	74d0d0        	extui	a13, a13, 0, 8
400d0f1e:	2c0c      	movi.n	a12, 2
400d0f20:	04a0b2        	movi	a11, 4
400d0f23:	66a0a2        	movi	a10, 102
400d0f26:	fc8181        	l32r	a8, 400d012c <_image_irom_vaddr+0x10c> (400041a4 <rom_i2c_writeReg>)
400d0f29:	0008e0        	callx8	a8
400d0f2c:	1122a0        	slli	a2, a2, 6
400d0f2f:	04dd      	mov.n	a13, a4
400d0f31:	202320        	or	a2, a3, a2
400d0f34:	3c0c      	movi.n	a12, 3
400d0f36:	4b0c      	movi.n	a11, 4
400d0f38:	66a0a2        	movi	a10, 102
400d0f3b:	fc7c81        	l32r	a8, 400d012c <_image_irom_vaddr+0x10c> (400041a4 <rom_i2c_writeReg>)
400d0f3e:	0008e0        	callx8	a8
400d0f41:	742020        	extui	a2, a2, 0, 8
400d0f44:	02dd      	mov.n	a13, a2
400d0f46:	5c0c      	movi.n	a12, 5
400d0f48:	04a0b2        	movi	a11, 4
400d0f4b:	66a0a2        	movi	a10, 102
400d0f4e:	fc7781        	l32r	a8, 400d012c <_image_irom_vaddr+0x10c> (400041a4 <rom_i2c_writeReg>)
400d0f51:	0008e0        	callx8	a8
400d0f54:	fc5d21        	l32r	a2, 400d00c8 <_image_irom_vaddr+0xa8> (3ff48070 <GPIO+0x4070>)
400d0f57:	a0a0a2        	movi	a10, 160
400d0f5a:	0020c0        	memw
400d0f5d:	0228      	l32i.n	a2, a2, 0
400d0f5f:	045c      	movi.n	a4, 80
400d0f61:	152e20        	extui	a2, a2, 30, 2
400d0f64:	83a420        	moveqz	a10, a4, a2
400d0f67:	fc6781        	l32r	a8, 400d0104 <_image_irom_vaddr+0xe4> (40008534 <esp_rom_delay_us>)
400d0f6a:	0008e0        	callx8	a8
400d0f6d:	fc5c21        	l32r	a2, 400d00e0 <_image_irom_vaddr+0xc0> (3ffb0440 <s_cur_pll_freq>)
400d0f70:	0138      	l32i.n	a3, a1, 0
400d0f72:	0239      	s32i.n	a3, a2, 0
400d0f74:	f01d      	retw.n
	...

400d0f78 <rtc_clk_xtal_freq_get>:
400d0f78:	004136        	entry	a1, 32
400d0f7b:	fc6d21        	l32r	a2, 400d0130 <_image_irom_vaddr+0x110> (3ff480b0 <GPIO+0x40b0>)
400d0f7e:	0020c0        	memw
400d0f81:	0288      	l32i.n	a8, a2, 0
400d0f83:	020c      	movi.n	a2, 0
400d0f85:	f4a080        	extui	a10, a8, 0, 16
400d0f88:	f59080        	extui	a9, a8, 16, 16
400d0f8b:	0d9a97        	bne	a10, a9, 400d0f9c <rtc_clk_xtal_freq_get+0x24>
400d0f8e:	980b      	addi.n	a9, a8, -1
400d0f90:	fdafa2        	movi	a10, -3
400d0f93:	053a97        	bltu	a10, a9, 400d0f9c <rtc_clk_xtal_freq_get+0x24>
400d0f96:	fc6721        	l32r	a2, 400d0134 <_image_irom_vaddr+0x114> (fffe <CONFIG_ESP_HEAP_MEM_POOL_REGION_1_SIZE+0x3ffe>)
400d0f99:	102820        	and	a2, a8, a2
400d0f9c:	f01d      	retw.n
	...

400d0fa0 <rtc_clk_cpu_freq_mhz_to_config>:
400d0fa0:	004136        	entry	a1, 32
400d0fa3:	024d      	mov.n	a4, a2
400d0fa5:	fffd25        	call8	400d0f78 <rtc_clk_xtal_freq_get>
400d0fa8:	143a27        	bltu	a10, a2, 400d0fc0 <rtc_clk_cpu_freq_mhz_to_config+0x20>
400d0fab:	c29a20        	quou	a9, a10, a2
400d0fae:	418190        	srli	a8, a9, 1
400d0fb1:	88aa      	add.n	a8, a8, a10
400d0fb3:	c28890        	quou	a8, a8, a9
400d0fb6:	020c      	movi.n	a2, 0
400d0fb8:	389487        	bne	a4, a8, 400d0ff4 <rtc_clk_cpu_freq_mhz_to_config+0x54>
400d0fbb:	028d      	mov.n	a8, a2
400d0fbd:	000a06        	j	400d0fe9 <rtc_clk_cpu_freq_mhz_to_config+0x49>
400d0fc0:	025c      	movi.n	a2, 80
400d0fc2:	171427        	beq	a4, a2, 400d0fdd <rtc_clk_cpu_freq_mhz_to_config+0x3d>
400d0fc5:	a0a022        	movi	a2, 160
400d0fc8:	161427        	beq	a4, a2, 400d0fe2 <rtc_clk_cpu_freq_mhz_to_config+0x42>
400d0fcb:	f0a082        	movi	a8, 240
400d0fce:	020c      	movi.n	a2, 0
400d0fd0:	209487        	bne	a4, a8, 400d0ff4 <rtc_clk_cpu_freq_mhz_to_config+0x54>
400d0fd3:	290c      	movi.n	a9, 2
400d0fd5:	180c      	movi.n	a8, 1
400d0fd7:	e0a1a2        	movi	a10, 0x1e0
400d0fda:	0002c6        	j	400d0fe9 <rtc_clk_cpu_freq_mhz_to_config+0x49>
400d0fdd:	490c      	movi.n	a9, 4
400d0fdf:	000046        	j	400d0fe4 <rtc_clk_cpu_freq_mhz_to_config+0x44>
400d0fe2:	290c      	movi.n	a9, 2
400d0fe4:	180c      	movi.n	a8, 1
400d0fe6:	40a1a2        	movi	a10, 0x140
400d0fe9:	0389      	s32i.n	a8, a3, 0
400d0feb:	13a9      	s32i.n	a10, a3, 4
400d0fed:	2399      	s32i.n	a9, a3, 8
400d0fef:	3349      	s32i.n	a4, a3, 12
400d0ff1:	01a022        	movi	a2, 1
400d0ff4:	f01d      	retw.n
	...

400d0ff8 <rtc_clk_cpu_freq_get_config>:
400d0ff8:	004136        	entry	a1, 32
400d0ffb:	fc3341        	l32r	a4, 400d00c8 <_image_irom_vaddr+0xa8> (3ff48070 <GPIO+0x4070>)
400d0ffe:	0020c0        	memw
400d1001:	002442        	l32i	a4, a4, 0
400d1004:	154b40        	extui	a4, a4, 27, 2
400d1007:	1e1426        	beqi	a4, 1, 400d1029 <rtc_clk_cpu_freq_get_config+0x31>
400d100a:	462426        	beqi	a4, 2, 400d1054 <rtc_clk_cpu_freq_get_config+0x5c>
400d100d:	031456        	bnez	a4, 400d1042 <rtc_clk_cpu_freq_get_config+0x4a>
400d1010:	fc4a31        	l32r	a3, 400d0138 <_image_irom_vaddr+0x118> (3ff66000 <LEDC+0xd000>)
400d1013:	0020c0        	memw
400d1016:	002332        	l32i	a3, a3, 0
400d1019:	fff5e5        	call8	400d0f78 <rtc_clk_xtal_freq_get>
400d101c:	943030        	extui	a3, a3, 0, 10
400d101f:	331b      	addi.n	a3, a3, 1
400d1021:	0a6d      	mov.n	a6, a10
400d1023:	c25a30        	quou	a5, a10, a3
400d1026:	001086        	j	400d106c <rtc_clk_cpu_freq_get_config+0x74>
400d1029:	fc2431        	l32r	a3, 400d00bc <_image_irom_vaddr+0x9c> (3ff0003c <__device_handles_end+0xaff146>)
400d102c:	0020c0        	memw
400d102f:	0338      	l32i.n	a3, a3, 0
400d1031:	143030        	extui	a3, a3, 0, 2
400d1034:	53ac      	beqz.n	a3, 400d105d <rtc_clk_cpu_freq_get_config+0x65>
400d1036:	2a1326        	beqi	a3, 1, 400d1064 <rtc_clk_cpu_freq_get_config+0x6c>
400d1039:	f0a052        	movi	a5, 240
400d103c:	e0a162        	movi	a6, 0x1e0
400d103f:	292326        	beqi	a3, 2, 400d106c <rtc_clk_cpu_freq_get_config+0x74>
400d1042:	fc1cb1        	l32r	a11, 400d00b4 <_image_irom_vaddr+0x94> (3f400a44 <levels$0+0x70>)
400d1045:	fc3da1        	l32r	a10, 400d013c <_image_irom_vaddr+0x11c> (3f400a67 <levels$0+0x93>)
400d1048:	fc2481        	l32r	a8, 400d00d8 <_image_irom_vaddr+0xb8> (40007d54 <esp_rom_printf>)
400d104b:	0008e0        	callx8	a8
400d104e:	0093a5        	call8	400d1988 <abort>
400d1051:	0005c6        	j	400d106c <rtc_clk_cpu_freq_get_config+0x74>
400d1054:	850c      	movi.n	a5, 8
400d1056:	130c      	movi.n	a3, 1
400d1058:	056d      	mov.n	a6, a5
400d105a:	000386        	j	400d106c <rtc_clk_cpu_freq_get_config+0x74>
400d105d:	055c      	movi.n	a5, 80
400d105f:	430c      	movi.n	a3, 4
400d1061:	000106        	j	400d1069 <rtc_clk_cpu_freq_get_config+0x71>
400d1064:	a0a052        	movi	a5, 160
400d1067:	230c      	movi.n	a3, 2
400d1069:	40a162        	movi	a6, 0x140
400d106c:	0249      	s32i.n	a4, a2, 0
400d106e:	1269      	s32i.n	a6, a2, 4
400d1070:	2239      	s32i.n	a3, a2, 8
400d1072:	3259      	s32i.n	a5, a2, 12
400d1074:	f01d      	retw.n
	...

400d1078 <rtc_clk_xtal_freq_update>:
400d1078:	004136        	entry	a1, 32
400d107b:	fc2d91        	l32r	a9, 400d0130 <_image_irom_vaddr+0x110> (3ff480b0 <GPIO+0x40b0>)
400d107e:	fc30a1        	l32r	a10, 400d0140 <_image_irom_vaddr+0x120> (10001 <CONFIG_ESP_HEAP_MEM_POOL_REGION_1_SIZE+0x4001>)
400d1081:	0020c0        	memw
400d1084:	0988      	l32i.n	a8, a9, 0
400d1086:	1088a0        	and	a8, a8, a10
400d1089:	0498a7        	bne	a8, a10, 400d1091 <rtc_clk_xtal_freq_update+0x19>
400d108c:	180c      	movi.n	a8, 1
400d108e:	202280        	or	a2, a2, a8
400d1091:	f48020        	extui	a8, a2, 0, 16
400d1094:	112200        	slli	a2, a2, 16
400d1097:	208820        	or	a8, a8, a2
400d109a:	0020c0        	memw
400d109d:	0989      	s32i.n	a8, a9, 0
400d109f:	f01d      	retw.n
400d10a1:	000000        	ill

400d10a4 <rtc_clk_apb_freq_update>:
400d10a4:	004136        	entry	a1, 32
400d10a7:	418c20        	srli	a8, a2, 12
400d10aa:	118800        	slli	a8, a8, 16
400d10ad:	f42c20        	extui	a2, a2, 12, 16
400d10b0:	202280        	or	a2, a2, a8
400d10b3:	fc0781        	l32r	a8, 400d00d0 <_image_irom_vaddr+0xb0> (3ff480b4 <GPIO+0x40b4>)
400d10b6:	0020c0        	memw
400d10b9:	0829      	s32i.n	a2, a8, 0
400d10bb:	f01d      	retw.n
400d10bd:	000000        	ill

400d10c0 <rtc_clk_cpu_freq_to_xtal>:
400d10c0:	004136        	entry	a1, 32
400d10c3:	20a220        	or	a10, a2, a2
400d10c6:	af4e25        	call8	400805a8 <ets_update_cpu_frequency>
400d10c9:	fc1b91        	l32r	a9, 400d0138 <_image_irom_vaddr+0x118> (3ff66000 <LEDC+0xd000>)
400d10cc:	00aca2        	movi	a10, 0xfffffc00
400d10cf:	0020c0        	memw
400d10d2:	002982        	l32i	a8, a9, 0
400d10d5:	ffc332        	addi	a3, a3, -1
400d10d8:	1088a0        	and	a8, a8, a10
400d10db:	943030        	extui	a3, a3, 0, 10
400d10de:	203380        	or	a3, a3, a8
400d10e1:	0020c0        	memw
400d10e4:	0939      	s32i.n	a3, a9, 0
400d10e6:	fc1731        	l32r	a3, 400d0144 <_image_irom_vaddr+0x124> (3ff66004 <LEDC+0xd004>)
400d10e9:	820b      	addi.n	a8, a2, -1
400d10eb:	0020c0        	memw
400d10ee:	0389      	s32i.n	a8, a3, 0
400d10f0:	fbf681        	l32r	a8, 400d00c8 <_image_irom_vaddr+0xa8> (3ff48070 <GPIO+0x4070>)
400d10f3:	fbf691        	l32r	a9, 400d00cc <_image_irom_vaddr+0xac> (e7ffffff <_rtc_bss_end+0x97ffffff>)
400d10f6:	0020c0        	memw
400d10f9:	0838      	l32i.n	a3, a8, 0
400d10fb:	fbd9a1        	l32r	a10, 400d0060 <_image_irom_vaddr+0x40> (f4240 <CONFIG_XTENSA_CCOUNT_HZ>)
400d10fe:	103390        	and	a3, a3, a9
400d1101:	82a2a0        	mull	a10, a2, a10
400d1104:	0020c0        	memw
400d1107:	0839      	s32i.n	a3, a8, 0
400d1109:	fff9a5        	call8	400d10a4 <rtc_clk_apb_freq_update>
400d110c:	fbed81        	l32r	a8, 400d00c0 <_image_irom_vaddr+0xa0> (3ff4807c <GPIO+0x407c>)
400d110f:	fbed91        	l32r	a9, 400d00c4 <_image_irom_vaddr+0xa4> (ffffc7ff <_rtc_bss_end+0xafffc7ff>)
400d1112:	0020c0        	memw
400d1115:	0838      	l32i.n	a3, a8, 0
400d1117:	103390        	and	a3, a3, a9
400d111a:	0732e6        	bgei	a2, 3, 400d1125 <rtc_clk_cpu_freq_to_xtal+0x65>
400d111d:	120c      	movi.n	a2, 1
400d111f:	112240        	slli	a2, a2, 12
400d1122:	000106        	j	400d112a <rtc_clk_cpu_freq_to_xtal+0x6a>
400d1125:	120c      	movi.n	a2, 1
400d1127:	112230        	slli	a2, a2, 13
400d112a:	203320        	or	a3, a3, a2
400d112d:	0020c0        	memw
400d1130:	0839      	s32i.n	a3, a8, 0
400d1132:	f01d      	retw.n

400d1134 <rtc_clk_cpu_freq_set_config>:
400d1134:	004136        	entry	a1, 32
400d1137:	ffe425        	call8	400d0f78 <rtc_clk_xtal_freq_get>
400d113a:	fbe331        	l32r	a3, 400d00c8 <_image_irom_vaddr+0xa8> (3ff48070 <GPIO+0x4070>)
400d113d:	0020c0        	memw
400d1140:	002332        	l32i	a3, a3, 0
400d1143:	153b30        	extui	a3, a3, 27, 2
400d1146:	00e316        	beqz	a3, 400d1158 <rtc_clk_cpu_freq_set_config+0x24>
400d1149:	01a0b2        	movi	a11, 1
400d114c:	fff725        	call8	400d10c0 <rtc_clk_cpu_freq_to_xtal>
400d114f:	002c25        	call8	400d1410 <rtc_clk_wait_for_slow_cycle>
400d1152:	021366        	bnei	a3, 1, 400d1158 <rtc_clk_cpu_freq_set_config+0x24>
400d1155:	ffa565        	call8	400d0bac <rtc_clk_bbpll_disable>
400d1158:	002232        	l32i	a3, a2, 0
400d115b:	012356        	bnez	a3, 400d1171 <rtc_clk_cpu_freq_set_config+0x3d>
400d115e:	0222b2        	l32i	a11, a2, 8
400d1161:	022bf6        	bgeui	a11, 2, 400d1167 <rtc_clk_cpu_freq_set_config+0x33>
400d1164:	003906        	j	400d124c <rtc_clk_cpu_freq_set_config+0x118>
400d1167:	32a8      	l32i.n	a10, a2, 12
400d1169:	fff565        	call8	400d10c0 <rtc_clk_cpu_freq_to_xtal>
400d116c:	003706        	j	400d124c <rtc_clk_cpu_freq_set_config+0x118>
400d116f:	00          	.byte 00
400d1170:	00          	.byte 00
400d1171:	021326        	beqi	a3, 1, 400d1177 <rtc_clk_cpu_freq_set_config+0x43>
400d1174:	001d46        	j	400d11ed <rtc_clk_cpu_freq_set_config+0xb9>
400d1177:	fbd991        	l32r	a9, 400d00dc <_image_irom_vaddr+0xbc> (3ff48000 <GPIO+0x4000>)
400d117a:	fbf3a1        	l32r	a10, 400d0148 <_image_irom_vaddr+0x128> (fffbfabf <_rtc_bss_end+0xaffbfabf>)
400d117d:	0020c0        	memw
400d1180:	0988      	l32i.n	a8, a9, 0
400d1182:	8d1c      	movi.n	a13, 24
400d1184:	1088a0        	and	a8, a8, a10
400d1187:	0020c0        	memw
400d118a:	0989      	s32i.n	a8, a9, 0
400d118c:	0c0c      	movi.n	a12, 0
400d118e:	4b0c      	movi.n	a11, 4
400d1190:	66a0a2        	movi	a10, 102
400d1193:	fbe681        	l32r	a8, 400d012c <_image_irom_vaddr+0x10c> (400041a4 <rom_i2c_writeReg>)
400d1196:	0008e0        	callx8	a8
400d1199:	03cd      	mov.n	a12, a3
400d119b:	0d2c      	movi.n	a13, 32
400d119d:	4b0c      	movi.n	a11, 4
400d119f:	66a0a2        	movi	a10, 102
400d11a2:	fbe281        	l32r	a8, 400d012c <_image_irom_vaddr+0x10c> (400041a4 <rom_i2c_writeReg>)
400d11a5:	0008e0        	callx8	a8
400d11a8:	04a0c2        	movi	a12, 4
400d11ab:	20bcc0        	or	a11, a12, a12
400d11ae:	9aa0d2        	movi	a13, 154
400d11b1:	66a0a2        	movi	a10, 102
400d11b4:	fbde81        	l32r	a8, 400d012c <_image_irom_vaddr+0x10c> (400041a4 <rom_i2c_writeReg>)
400d11b7:	0008e0        	callx8	a8
400d11ba:	0d0c      	movi.n	a13, 0
400d11bc:	ac0c      	movi.n	a12, 10
400d11be:	4b0c      	movi.n	a11, 4
400d11c0:	66a0a2        	movi	a10, 102
400d11c3:	fbda81        	l32r	a8, 400d012c <_image_irom_vaddr+0x10c> (400041a4 <rom_i2c_writeReg>)
400d11c6:	0008e0        	callx8	a8
400d11c9:	0d0c      	movi.n	a13, 0
400d11cb:	cc0c      	movi.n	a12, 12
400d11cd:	4b0c      	movi.n	a11, 4
400d11cf:	66a0a2        	movi	a10, 102
400d11d2:	fbd681        	l32r	a8, 400d012c <_image_irom_vaddr+0x10c> (400041a4 <rom_i2c_writeReg>)
400d11d5:	0008e0        	callx8	a8
400d11d8:	002365        	call8	400d1410 <rtc_clk_wait_for_slow_cycle>
400d11db:	ffd9e5        	call8	400d0f78 <rtc_clk_xtal_freq_get>
400d11de:	12b8      	l32i.n	a11, a2, 4
400d11e0:	ffc065        	call8	400d0de8 <rtc_clk_bbpll_configure>
400d11e3:	32a8      	l32i.n	a10, a2, 12
400d11e5:	ff92a5        	call8	400d0b10 <rtc_clk_cpu_freq_to_pll_mhz>
400d11e8:	001806        	j	400d124c <rtc_clk_cpu_freq_set_config+0x118>
400d11eb:	00          	.byte 00
400d11ec:	00          	.byte 00
400d11ed:	5b2366        	bnei	a3, 2, 400d124c <rtc_clk_cpu_freq_set_config+0x118>
400d11f0:	08a0a2        	movi	a10, 8
400d11f3:	af3b65        	call8	400805a8 <ets_update_cpu_frequency>
400d11f6:	fbb231        	l32r	a3, 400d00c0 <_image_irom_vaddr+0xa0> (3ff4807c <GPIO+0x407c>)
400d11f9:	fbb221        	l32r	a2, 400d00c4 <_image_irom_vaddr+0xa4> (ffffc7ff <_rtc_bss_end+0xafffc7ff>)
400d11fc:	0020c0        	memw
400d11ff:	002382        	l32i	a8, a3, 0
400d1202:	108820        	and	a8, a8, a2
400d1205:	01a022        	movi	a2, 1
400d1208:	112230        	slli	a2, a2, 13
400d120b:	208820        	or	a8, a8, a2
400d120e:	0020c0        	memw
400d1211:	0389      	s32i.n	a8, a3, 0
400d1213:	fbc931        	l32r	a3, 400d0138 <_image_irom_vaddr+0x118> (3ff66000 <LEDC+0xd000>)
400d1216:	00ac82        	movi	a8, 0xfffffc00
400d1219:	0020c0        	memw
400d121c:	0328      	l32i.n	a2, a3, 0
400d121e:	102280        	and	a2, a2, a8
400d1221:	0020c0        	memw
400d1224:	0329      	s32i.n	a2, a3, 0
400d1226:	fba831        	l32r	a3, 400d00c8 <_image_irom_vaddr+0xa8> (3ff48070 <GPIO+0x4070>)
400d1229:	fba821        	l32r	a2, 400d00cc <_image_irom_vaddr+0xac> (e7ffffff <_rtc_bss_end+0x97ffffff>)
400d122c:	0020c0        	memw
400d122f:	0388      	l32i.n	a8, a3, 0
400d1231:	108820        	and	a8, a8, a2
400d1234:	120c      	movi.n	a2, 1
400d1236:	012240        	slli	a2, a2, 28
400d1239:	208820        	or	a8, a8, a2
400d123c:	0020c0        	memw
400d123f:	0389      	s32i.n	a8, a3, 0
400d1241:	fba321        	l32r	a2, 400d00d0 <_image_irom_vaddr+0xb0> (3ff480b4 <GPIO+0x40b4>)
400d1244:	fbc231        	l32r	a3, 400d014c <_image_irom_vaddr+0x12c> (81b081b <CONFIG_FLASH_SIZE+0x7db081b>)
400d1247:	0020c0        	memw
400d124a:	0239      	s32i.n	a3, a2, 0
400d124c:	f01d      	retw.n
	...

400d1250 <rtc_clk_apb_freq_get>:
400d1250:	004136        	entry	a1, 32
400d1253:	fb9f21        	l32r	a2, 400d00d0 <_image_irom_vaddr+0xb0> (3ff480b4 <GPIO+0x40b4>)
400d1256:	0020c0        	memw
400d1259:	0288      	l32i.n	a8, a2, 0
400d125b:	fbbd21        	l32r	a2, 400d0150 <_image_irom_vaddr+0x130> (ffff000 <CONFIG_SYS_CLOCK_HW_CYCLES_PER_SEC+0x1b1d400>)
400d125e:	118840        	slli	a8, a8, 12
400d1261:	108820        	and	a8, a8, a2
400d1264:	fbbc21        	l32r	a2, 400d0154 <_image_irom_vaddr+0x134> (7a120 <CONFIG_ESP_HEAP_MEM_POOL_REGION_1_SIZE+0x6e120>)
400d1267:	882a      	add.n	a8, a8, a2
400d1269:	fbbb21        	l32r	a2, 400d0158 <_image_irom_vaddr+0x138> (431bde83 <_etext+0x30eaaa3>)
400d126c:	a28820        	muluh	a8, a8, a2
400d126f:	fb7c21        	l32r	a2, 400d0060 <_image_irom_vaddr+0x40> (f4240 <CONFIG_XTENSA_CCOUNT_HZ>)
400d1272:	d58280        	extui	a8, a8, 18, 14
400d1275:	822820        	mull	a2, a8, a2
400d1278:	f01d      	retw.n
	...

400d127c <rtc_clk_cal_internal>:
400d127c:	004136        	entry	a1, 32
400d127f:	fb9251        	l32r	a5, 400d00c8 <_image_irom_vaddr+0xa8> (3ff48070 <GPIO+0x4070>)
400d1282:	160c      	movi.n	a6, 1
400d1284:	0020c0        	memw
400d1287:	0548      	l32i.n	a4, a5, 0
400d1289:	044840        	extui	a4, a4, 8, 1
400d128c:	0d2266        	bnei	a2, 2, 400d129d <rtc_clk_cal_internal+0x21>
400d128f:	0a1467        	beq	a4, a6, 400d129d <rtc_clk_cal_internal+0x21>
400d1292:	0020c0        	memw
400d1295:	0588      	l32i.n	a8, a5, 0
400d1297:	00a162        	movi	a6, 0x100
400d129a:	000286        	j	400d12a8 <rtc_clk_cal_internal+0x2c>
400d129d:	0f1266        	bnei	a2, 1, 400d12b0 <rtc_clk_cal_internal+0x34>
400d12a0:	0020c0        	memw
400d12a3:	0588      	l32i.n	a8, a5, 0
400d12a5:	00a262        	movi	a6, 0x200
400d12a8:	208860        	or	a8, a8, a6
400d12ab:	0020c0        	memw
400d12ae:	0589      	s32i.n	a8, a5, 0
400d12b0:	fbad91        	l32r	a9, 400d0164 <_image_irom_vaddr+0x144> (3ff5f068 <LEDC+0x6068>)
400d12b3:	fbad61        	l32r	a6, 400d0168 <_image_irom_vaddr+0x148> (ffff9fff <_rtc_bss_end+0xafff9fff>)
400d12b6:	0020c0        	memw
400d12b9:	0958      	l32i.n	a5, a9, 0
400d12bb:	3a0c      	movi.n	a10, 3
400d12bd:	118230        	slli	a8, a2, 13
400d12c0:	11aa30        	slli	a10, a10, 13
400d12c3:	105560        	and	a5, a5, a6
400d12c6:	1088a0        	and	a8, a8, a10
400d12c9:	208850        	or	a8, a8, a5
400d12cc:	0020c0        	memw
400d12cf:	0989      	s32i.n	a8, a9, 0
400d12d1:	0020c0        	memw
400d12d4:	0958      	l32i.n	a5, a9, 0
400d12d6:	fba561        	l32r	a6, 400d016c <_image_irom_vaddr+0x14c> (ffffefff <_rtc_bss_end+0xafffefff>)
400d12d9:	105560        	and	a5, a5, a6
400d12dc:	fba561        	l32r	a6, 400d0170 <_image_irom_vaddr+0x150> (7fff0000 <_rtc_bss_end+0x2fff0000>)
400d12df:	0020c0        	memw
400d12e2:	0959      	s32i.n	a5, a9, 0
400d12e4:	115300        	slli	a5, a3, 16
400d12e7:	0020c0        	memw
400d12ea:	0988      	l32i.n	a8, a9, 0
400d12ec:	105560        	and	a5, a5, a6
400d12ef:	fba161        	l32r	a6, 400d0174 <_image_irom_vaddr+0x154> (8000ffff <_rtc_bss_end+0x3000ffff>)
400d12f2:	108860        	and	a8, a8, a6
400d12f5:	205580        	or	a5, a5, a8
400d12f8:	0020c0        	memw
400d12fb:	0959      	s32i.n	a5, a9, 0
400d12fd:	fb7251        	l32r	a5, 400d00c8 <_image_irom_vaddr+0xa8> (3ff48070 <GPIO+0x4070>)
400d1300:	01a082        	movi	a8, 1
400d1303:	0020c0        	memw
400d1306:	002552        	l32i	a5, a5, 0
400d1309:	11c810        	slli	a12, a8, 15
400d130c:	202226        	beqi	a2, 2, 400d1330 <rtc_clk_cal_internal+0xb4>
400d130f:	00a062        	movi	a6, 0
400d1312:	938620        	movnez	a8, a6, a2
400d1315:	155e50        	extui	a5, a5, 30, 2
400d1318:	748080        	extui	a8, a8, 0, 8
400d131b:	021566        	bnei	a5, 1, 400d1321 <rtc_clk_cal_internal+0xa5>
400d131e:	0e9867        	bne	a8, a6, 400d1330 <rtc_clk_cal_internal+0xb4>
400d1321:	fb8ec1        	l32r	a12, 400d015c <_image_irom_vaddr+0x13c> (81b3 <_image_irom_start+0x437f>)
400d1324:	081226        	beqi	a2, 1, 400d1330 <rtc_clk_cal_internal+0xb4>
400d1327:	022566        	bnei	a5, 2, 400d132d <rtc_clk_cal_internal+0xb1>
400d132a:	002856        	bnez	a8, 400d1330 <rtc_clk_cal_internal+0xb4>
400d132d:	fb8cc1        	l32r	a12, 400d0160 <_image_irom_vaddr+0x140> (249f0 <CONFIG_ESP_HEAP_MEM_POOL_REGION_1_SIZE+0x189f0>)
400d1330:	fb4ca1        	l32r	a10, 400d0060 <_image_irom_vaddr+0x40> (f4240 <CONFIG_XTENSA_CCOUNT_HZ>)
400d1333:	0d0c      	movi.n	a13, 0
400d1335:	a2b3a0        	muluh	a11, a3, a10
400d1338:	82a3a0        	mull	a10, a3, a10
400d133b:	fb4581        	l32r	a8, 400d0050 <_image_irom_vaddr+0x30> (4000cff8 <__udivdi3>)
400d133e:	0008e0        	callx8	a8
400d1341:	0a3d      	mov.n	a3, a10
400d1343:	0a6d      	mov.n	a6, a10
400d1345:	ffc325        	call8	400d0f78 <rtc_clk_xtal_freq_get>
400d1348:	0acc      	bnez.n	a10, 400d134c <rtc_clk_cal_internal+0xd0>
400d134a:	8a2c      	movi.n	a10, 40
400d134c:	fb8b51        	l32r	a5, 400d0178 <_image_irom_vaddr+0x158> (1ffffff <CONFIG_FLASH_SIZE+0x1bfffff>)
400d134f:	c255a0        	quou	a5, a5, a10
400d1352:	0e3657        	bltu	a6, a5, 400d1364 <rtc_clk_cal_internal+0xe8>
400d1355:	fb89b1        	l32r	a11, 400d017c <_image_irom_vaddr+0x15c> (3f400b0b <CSWTCH$43+0x11>)
400d1358:	fb8aa1        	l32r	a10, 400d0180 <_image_irom_vaddr+0x160> (3f400b14 <CSWTCH$43+0x1a>)
400d135b:	fb5f81        	l32r	a8, 400d00d8 <_image_irom_vaddr+0xb8> (40007d54 <esp_rom_printf>)
400d135e:	0008e0        	callx8	a8
400d1361:	001d46        	j	400d13da <rtc_clk_cal_internal+0x15e>
400d1364:	fb8051        	l32r	a5, 400d0164 <_image_irom_vaddr+0x144> (3ff5f068 <LEDC+0x6068>)
400d1367:	fb4591        	l32r	a9, 400d007c <_image_irom_vaddr+0x5c> (7fffffff <_rtc_bss_end+0x2fffffff>)
400d136a:	0020c0        	memw
400d136d:	0588      	l32i.n	a8, a5, 0
400d136f:	03ad      	mov.n	a10, a3
400d1371:	108890        	and	a8, a8, a9
400d1374:	0020c0        	memw
400d1377:	0589      	s32i.n	a8, a5, 0
400d1379:	0020c0        	memw
400d137c:	0588      	l32i.n	a8, a5, 0
400d137e:	f97c      	movi.n	a9, -1
400d1380:	019910        	slli	a9, a9, 31
400d1383:	208890        	or	a8, a8, a9
400d1386:	0020c0        	memw
400d1389:	0589      	s32i.n	a8, a5, 0
400d138b:	000046        	j	400d1390 <rtc_clk_cal_internal+0x114>
400d138e:	330b      	addi.n	a3, a3, -1
400d1390:	fb5d81        	l32r	a8, 400d0104 <_image_irom_vaddr+0xe4> (40008534 <esp_rom_delay_us>)
400d1393:	0008e0        	callx8	a8
400d1396:	0020c0        	memw
400d1399:	0588      	l32i.n	a8, a5, 0
400d139b:	1a0c      	movi.n	a10, 1
400d139d:	048f80        	extui	a8, a8, 15, 1
400d13a0:	0818a7        	beq	a8, a10, 400d13ac <rtc_clk_cal_internal+0x130>
400d13a3:	318f30        	srai	a8, a3, 31
400d13a6:	c08830        	sub	a8, a8, a3
400d13a9:	fe1896        	bltz	a8, 400d138e <rtc_clk_cal_internal+0x112>
400d13ac:	fb4751        	l32r	a5, 400d00c8 <_image_irom_vaddr+0xa8> (3ff48070 <GPIO+0x4070>)
400d13af:	ffae92        	movi	a9, 0xfffffeff
400d13b2:	0020c0        	memw
400d13b5:	0588      	l32i.n	a8, a5, 0
400d13b7:	114480        	slli	a4, a4, 8
400d13ba:	108890        	and	a8, a8, a9
400d13bd:	204840        	or	a4, a8, a4
400d13c0:	0020c0        	memw
400d13c3:	0549      	s32i.n	a4, a5, 0
400d13c5:	0f1266        	bnei	a2, 1, 400d13d8 <rtc_clk_cal_internal+0x15c>
400d13c8:	0020c0        	memw
400d13cb:	0528      	l32i.n	a2, a5, 0
400d13cd:	ffad42        	movi	a4, 0xfffffdff
400d13d0:	102240        	and	a2, a2, a4
400d13d3:	0020c0        	memw
400d13d6:	0529      	s32i.n	a2, a5, 0
400d13d8:	43cc      	bnez.n	a3, 400d13e0 <rtc_clk_cal_internal+0x164>
400d13da:	020c      	movi.n	a2, 0
400d13dc:	0002c6        	j	400d13eb <rtc_clk_cal_internal+0x16f>
400d13df:	00          	.byte 00
400d13e0:	fb6921        	l32r	a2, 400d0184 <_image_irom_vaddr+0x164> (3ff5f06c <LEDC+0x606c>)
400d13e3:	0020c0        	memw
400d13e6:	0228      	l32i.n	a2, a2, 0
400d13e8:	412720        	srli	a2, a2, 7
400d13eb:	f01d      	retw.n
400d13ed:	000000        	ill

400d13f0 <rtc_clk_cal_ratio>:
400d13f0:	004136        	entry	a1, 32
400d13f3:	03bd      	mov.n	a11, a3
400d13f5:	02ad      	mov.n	a10, a2
400d13f7:	ffe865        	call8	400d127c <rtc_clk_cal_internal>
400d13fa:	0abd      	mov.n	a11, a10
400d13fc:	03cd      	mov.n	a12, a3
400d13fe:	0d0c      	movi.n	a13, 0
400d1400:	01aad0        	slli	a10, a10, 19
400d1403:	41bdb0        	srli	a11, a11, 13
400d1406:	fb1281        	l32r	a8, 400d0050 <_image_irom_vaddr+0x30> (4000cff8 <__udivdi3>)
400d1409:	0008e0        	callx8	a8
400d140c:	0a2d      	mov.n	a2, a10
400d140e:	f01d      	retw.n

400d1410 <rtc_clk_wait_for_slow_cycle>:
400d1410:	004136        	entry	a1, 32
400d1413:	fb5421        	l32r	a2, 400d0164 <_image_irom_vaddr+0x144> (3ff5f068 <LEDC+0x6068>)
400d1416:	fb5c91        	l32r	a9, 400d0188 <_image_irom_vaddr+0x168> (7fffefff <_rtc_bss_end+0x2fffefff>)
400d1419:	0020c0        	memw
400d141c:	0288      	l32i.n	a8, a2, 0
400d141e:	108890        	and	a8, a8, a9
400d1421:	0020c0        	memw
400d1424:	0289      	s32i.n	a8, a2, 0
400d1426:	0020c0        	memw
400d1429:	0288      	l32i.n	a8, a2, 0
400d142b:	fb1191        	l32r	a9, 400d0070 <_image_irom_vaddr+0x50> (ffff7fff <_rtc_bss_end+0xafff7fff>)
400d142e:	108890        	and	a8, a8, a9
400d1431:	0020c0        	memw
400d1434:	0289      	s32i.n	a8, a2, 0
400d1436:	0020c0        	memw
400d1439:	0288      	l32i.n	a8, a2, 0
400d143b:	fb4b91        	l32r	a9, 400d0168 <_image_irom_vaddr+0x148> (ffff9fff <_rtc_bss_end+0xafff9fff>)
400d143e:	108890        	and	a8, a8, a9
400d1441:	0020c0        	memw
400d1444:	0289      	s32i.n	a8, a2, 0
400d1446:	0020c0        	memw
400d1449:	0288      	l32i.n	a8, a2, 0
400d144b:	fb4a91        	l32r	a9, 400d0174 <_image_irom_vaddr+0x154> (8000ffff <_rtc_bss_end+0x3000ffff>)
400d144e:	108890        	and	a8, a8, a9
400d1451:	0020c0        	memw
400d1454:	0289      	s32i.n	a8, a2, 0
400d1456:	0020c0        	memw
400d1459:	0288      	l32i.n	a8, a2, 0
400d145b:	f97c      	movi.n	a9, -1
400d145d:	019910        	slli	a9, a9, 31
400d1460:	208890        	or	a8, a8, a9
400d1463:	0020c0        	memw
400d1466:	0289      	s32i.n	a8, a2, 0
400d1468:	1a0c      	movi.n	a10, 1
400d146a:	fb2681        	l32r	a8, 400d0104 <_image_irom_vaddr+0xe4> (40008534 <esp_rom_delay_us>)
400d146d:	0008e0        	callx8	a8
400d1470:	0020c0        	memw
400d1473:	0288      	l32i.n	a8, a2, 0
400d1475:	ef68f7        	bbci	a8, 15, 400d1468 <rtc_clk_wait_for_slow_cycle+0x58>
400d1478:	f01d      	retw.n
	...

400d147c <rtc_clk_xtal_freq_estimate>:
400d147c:	004136        	entry	a1, 32
400d147f:	ff8a25        	call8	400d0d20 <rtc_clk_8m_enabled>
400d1482:	ff8b65        	call8	400d0d38 <rtc_clk_8md256_enabled>
400d1485:	009a56        	bnez	a10, 400d1492 <rtc_clk_xtal_freq_estimate+0x16>
400d1488:	1b0c      	movi.n	a11, 1
400d148a:	0bad      	mov.n	a10, a11
400d148c:	201110        	or	a1, a1, a1
400d148f:	ff80e5        	call8	400d0c9c <rtc_clk_8m_enable>
400d1492:	0aa0b2        	movi	a11, 10
400d1495:	01a0a2        	movi	a10, 1
400d1498:	fff565        	call8	400d13f0 <rtc_clk_cal_ratio>
400d149b:	fb3c21        	l32r	a2, 400d018c <_image_irom_vaddr+0x16c> (81b320 <CONFIG_FLASH_SIZE+0x41b320>)
400d149e:	fb3cc1        	l32r	a12, 400d0190 <_image_irom_vaddr+0x170> (f424000 <CONFIG_SYS_CLOCK_HW_CYCLES_PER_SEC+0xf42400>)
400d14a1:	a2ba20        	muluh	a11, a10, a2
400d14a4:	82aa20        	mull	a10, a10, a2
400d14a7:	00a0d2        	movi	a13, 0
400d14aa:	fae981        	l32r	a8, 400d0050 <_image_irom_vaddr+0x30> (4000cff8 <__udivdi3>)
400d14ad:	0008e0        	callx8	a8
400d14b0:	11bb30        	slli	a11, a11, 13
400d14b3:	c5a3a0        	extui	a10, a10, 19, 13
400d14b6:	20cba0        	or	a12, a11, a10
400d14b9:	322c      	movi.n	a2, 35
400d14bb:	2232c7        	bltu	a2, a12, 400d14e1 <rtc_clk_xtal_freq_estimate+0x65>
400d14be:	122c      	movi.n	a2, 33
400d14c0:	2c32c7        	bltu	a2, a12, 400d14f0 <rtc_clk_xtal_freq_estimate+0x74>
400d14c3:	f21c      	movi.n	a2, 31
400d14c5:	10b2c7        	bgeu	a2, a12, 400d14d9 <rtc_clk_xtal_freq_estimate+0x5d>
400d14c8:	fb33b1        	l32r	a11, 400d0194 <_image_irom_vaddr+0x174> (3f400b4f <CSWTCH$43+0x55>)
400d14cb:	fb33a1        	l32r	a10, 400d0198 <_image_irom_vaddr+0x178> (3f400b5c <CSWTCH$43+0x62>)
400d14ce:	fb0281        	l32r	a8, 400d00d8 <_image_irom_vaddr+0xb8> (40007d54 <esp_rom_printf>)
400d14d1:	0008e0        	callx8	a8
400d14d4:	a21c      	movi.n	a2, 26
400d14d6:	000d06        	j	400d150e <rtc_clk_xtal_freq_estimate+0x92>
400d14d9:	421c      	movi.n	a2, 20
400d14db:	21b2c7        	bgeu	a2, a12, 400d1500 <rtc_clk_xtal_freq_estimate+0x84>
400d14de:	fffc86        	j	400d14d4 <rtc_clk_xtal_freq_estimate+0x58>
400d14e1:	dccc22        	addi	a2, a12, -36
400d14e4:	980c      	movi.n	a8, 9
400d14e6:	163827        	bltu	a8, a2, 400d1500 <rtc_clk_xtal_freq_estimate+0x84>
400d14e9:	822c      	movi.n	a2, 40
400d14eb:	0007c6        	j	400d150e <rtc_clk_xtal_freq_estimate+0x92>
400d14ee:	00          	.byte 00
400d14ef:	00          	.byte 00
400d14f0:	fb29b1        	l32r	a11, 400d0194 <_image_irom_vaddr+0x174> (3f400b4f <CSWTCH$43+0x55>)
400d14f3:	fb2aa1        	l32r	a10, 400d019c <_image_irom_vaddr+0x17c> (3f400ba0 <CSWTCH$43+0xa6>)
400d14f6:	faf881        	l32r	a8, 400d00d8 <_image_irom_vaddr+0xb8> (40007d54 <esp_rom_printf>)
400d14f9:	0008e0        	callx8	a8
400d14fc:	fffa46        	j	400d14e9 <rtc_clk_xtal_freq_estimate+0x6d>
400d14ff:	00          	.byte 00
400d1500:	fb25b1        	l32r	a11, 400d0194 <_image_irom_vaddr+0x174> (3f400b4f <CSWTCH$43+0x55>)
400d1503:	fb27a1        	l32r	a10, 400d01a0 <_image_irom_vaddr+0x180> (3f400be4 <CSWTCH$43+0xea>)
400d1506:	020c      	movi.n	a2, 0
400d1508:	faf481        	l32r	a8, 400d00d8 <_image_irom_vaddr+0xb8> (40007d54 <esp_rom_printf>)
400d150b:	0008e0        	callx8	a8
400d150e:	f01d      	retw.n

400d1510 <rtc_clk_init>:
400d1510:	00a136        	entry	a1, 80
400d1513:	096132        	s32i	a3, a1, 36
400d1516:	faec31        	l32r	a3, 400d00c8 <_image_irom_vaddr+0xa8> (3ff48070 <GPIO+0x4070>)
400d1519:	086122        	s32i	a2, a1, 32
400d151c:	0020c0        	memw
400d151f:	0023b2        	l32i	a11, a3, 0
400d1522:	942820        	extui	a2, a2, 8, 10
400d1525:	15bbb0        	extui	a11, a11, 27, 2
400d1528:	041b66        	bnei	a11, 1, 400d1530 <rtc_clk_init+0x20>
400d152b:	8a2c      	movi.n	a10, 40
400d152d:	ffb925        	call8	400d10c0 <rtc_clk_cpu_freq_to_xtal>
400d1530:	fae481        	l32r	a8, 400d00c0 <_image_irom_vaddr+0xa0> (3ff4807c <GPIO+0x407c>)
400d1533:	230132        	l8ui	a3, a1, 35
400d1536:	0020c0        	memw
400d1539:	002842        	l32i	a4, a8, 0
400d153c:	fb1a91        	l32r	a9, 400d01a4 <_image_irom_vaddr+0x184> (ffc03fff <_rtc_bss_end+0xafc03fff>)
400d153f:	113320        	slli	a3, a3, 14
400d1542:	104490        	and	a4, a4, a9
400d1545:	203340        	or	a3, a3, a4
400d1548:	fae041        	l32r	a4, 400d00c8 <_image_irom_vaddr+0xa8> (3ff48070 <GPIO+0x4070>)
400d154b:	0020c0        	memw
400d154e:	006832        	s32i	a3, a8, 0
400d1551:	0020c0        	memw
400d1554:	002482        	l32i	a8, a4, 0
400d1557:	240132        	l8ui	a3, a1, 36
400d155a:	fb1391        	l32r	a9, 400d01a8 <_image_irom_vaddr+0x188> (fe01ffff <_rtc_bss_end+0xae01ffff>)
400d155d:	0133f0        	slli	a3, a3, 17
400d1560:	108890        	and	a8, a8, a9
400d1563:	203380        	or	a3, a3, a8
400d1566:	0020c0        	memw
400d1569:	0439      	s32i.n	a3, a4, 0
400d156b:	8138      	l32i.n	a3, a1, 32
400d156d:	0020c0        	memw
400d1570:	0488      	l32i.n	a8, a4, 0
400d1572:	fb0e91        	l32r	a9, 400d01ac <_image_irom_vaddr+0x18c> (ffff8fff <_rtc_bss_end+0xafff8fff>)
400d1575:	253530        	extui	a3, a3, 21, 3
400d1578:	108890        	and	a8, a8, a9
400d157b:	113340        	slli	a3, a3, 12
400d157e:	203380        	or	a3, a3, a8
400d1581:	0020c0        	memw
400d1584:	0439      	s32i.n	a3, a4, 0
400d1586:	fb0a31        	l32r	a3, 400d01b0 <_image_irom_vaddr+0x190> (6000e044 <_rtc_bss_end+0x1000e044>)
400d1589:	ffa382        	movi	a8, 0x3ff
400d158c:	0020c0        	memw
400d158f:	0348      	l32i.n	a4, a3, 0
400d1591:	118880        	slli	a8, a8, 8
400d1594:	204480        	or	a4, a4, a8
400d1597:	0020c0        	memw
400d159a:	0349      	s32i.n	a4, a3, 0
400d159c:	0020c0        	memw
400d159f:	0348      	l32i.n	a4, a3, 0
400d15a1:	fb0481        	l32r	a8, 400d01b4 <_image_irom_vaddr+0x194> (fffdbfff <_rtc_bss_end+0xaffdbfff>)
400d15a4:	104480        	and	a4, a4, a8
400d15a7:	0020c0        	memw
400d15aa:	0349      	s32i.n	a4, a3, 0
400d15ac:	fae131        	l32r	a3, 400d0130 <_image_irom_vaddr+0x110> (3ff480b0 <GPIO+0x40b0>)
400d15af:	200142        	l8ui	a4, a1, 32
400d15b2:	0020c0        	memw
400d15b5:	0338      	l32i.n	a3, a3, 0
400d15b7:	14fc      	bnez.n	a4, 400d15ec <rtc_clk_init+0xdc>
400d15b9:	f48030        	extui	a8, a3, 0, 16
400d15bc:	f54030        	extui	a4, a3, 16, 16
400d15bf:	0e9847        	bne	a8, a4, 400d15d1 <rtc_clk_init+0xc1>
400d15c2:	330b      	addi.n	a3, a3, -1
400d15c4:	d47c      	movi.n	a4, -3
400d15c6:	073437        	bltu	a4, a3, 400d15d1 <rtc_clk_init+0xc1>
400d15c9:	ff9ae5        	call8	400d0f78 <rtc_clk_xtal_freq_get>
400d15cc:	0a3d      	mov.n	a3, a10
400d15ce:	0013c6        	j	400d1621 <rtc_clk_init+0x111>
400d15d1:	ffeaa5        	call8	400d147c <rtc_clk_xtal_freq_estimate>
400d15d4:	0a3d      	mov.n	a3, a10
400d15d6:	047a56        	bnez	a10, 400d1621 <rtc_clk_init+0x111>
400d15d9:	faeeb1        	l32r	a11, 400d0194 <_image_irom_vaddr+0x174> (3f400b4f <CSWTCH$43+0x55>)
400d15dc:	faf7a1        	l32r	a10, 400d01b8 <_image_irom_vaddr+0x198> (3f400c0b <CSWTCH$43+0x111>)
400d15df:	1aa032        	movi	a3, 26
400d15e2:	fabd81        	l32r	a8, 400d00d8 <_image_irom_vaddr+0xb8> (40007d54 <esp_rom_printf>)
400d15e5:	0008e0        	callx8	a8
400d15e8:	000d46        	j	400d1621 <rtc_clk_init+0x111>
400d15eb:	00          	.byte 00
400d15ec:	f49030        	extui	a9, a3, 0, 16
400d15ef:	f58030        	extui	a8, a3, 16, 16
400d15f2:	0b9987        	bne	a9, a8, 400d1601 <rtc_clk_init+0xf1>
400d15f5:	330b      	addi.n	a3, a3, -1
400d15f7:	d87c      	movi.n	a8, -3
400d15f9:	043837        	bltu	a8, a3, 400d1601 <rtc_clk_init+0xf1>
400d15fc:	043d      	mov.n	a3, a4
400d15fe:	0007c6        	j	400d1621 <rtc_clk_init+0x111>
400d1601:	ffe7a5        	call8	400d147c <rtc_clk_xtal_freq_estimate>
400d1604:	203aa0        	or	a3, a10, a10
400d1607:	1614a7        	beq	a4, a10, 400d1621 <rtc_clk_init+0x111>
400d160a:	20daa0        	or	a13, a10, a10
400d160d:	fae1b1        	l32r	a11, 400d0194 <_image_irom_vaddr+0x174> (3f400b4f <CSWTCH$43+0x55>)
400d1610:	faeba1        	l32r	a10, 400d01bc <_image_irom_vaddr+0x19c> (3f400c43 <CSWTCH$43+0x149>)
400d1613:	20c440        	or	a12, a4, a4
400d1616:	fab081        	l32r	a8, 400d00d8 <_image_irom_vaddr+0xb8> (40007d54 <esp_rom_printf>)
400d1619:	0008e0        	callx8	a8
400d161c:	fff706        	j	400d15fc <rtc_clk_init+0xec>
400d161f:	00          	.byte 00
400d1620:	00          	.byte 00
400d1621:	00a0a2        	movi	a10, 0
400d1624:	faea81        	l32r	a8, 400d01cc <_image_irom_vaddr+0x1ac> (40009278 <esp_rom_uart_tx_wait_idle>)
400d1627:	0008e0        	callx8	a8
400d162a:	20a330        	or	a10, a3, a3
400d162d:	ffa4a5        	call8	400d1078 <rtc_clk_xtal_freq_update>
400d1630:	fa8ca1        	l32r	a10, 400d0060 <_image_irom_vaddr+0x40> (f4240 <CONFIG_XTENSA_CCOUNT_HZ>)
400d1633:	82a3a0        	mull	a10, a3, a10
400d1636:	ffa6e5        	call8	400d10a4 <rtc_clk_apb_freq_update>
400d1639:	10c1a2        	addi	a10, a1, 16
400d163c:	ff9ba5        	call8	400d0ff8 <rtc_clk_cpu_freq_get_config>
400d163f:	20b110        	or	a11, a1, a1
400d1642:	02ad      	mov.n	a10, a2
400d1644:	7148      	l32i.n	a4, a1, 28
400d1646:	ff95a5        	call8	400d0fa0 <rtc_clk_cpu_freq_mhz_to_config>
400d1649:	dacc      	bnez.n	a10, 400d165a <rtc_clk_init+0x14a>
400d164b:	fad2b1        	l32r	a11, 400d0194 <_image_irom_vaddr+0x174> (3f400b4f <CSWTCH$43+0x55>)
400d164e:	fadca1        	l32r	a10, 400d01c0 <_image_irom_vaddr+0x1a0> (3f400c97 <CSWTCH$43+0x19d>)
400d1651:	faa181        	l32r	a8, 400d00d8 <_image_irom_vaddr+0xb8> (40007d54 <esp_rom_printf>)
400d1654:	0008e0        	callx8	a8
400d1657:	003325        	call8	400d1988 <abort>
400d165a:	20a110        	or	a10, a1, a1
400d165d:	ffad65        	call8	400d1134 <rtc_clk_cpu_freq_set_config>
400d1660:	fab981        	l32r	a8, 400d0144 <_image_irom_vaddr+0x124> (3ff66004 <LEDC+0xd004>)
400d1663:	ffc332        	addi	a3, a3, -1
400d1666:	0020c0        	memw
400d1669:	0839      	s32i.n	a3, a8, 0
400d166b:	fad631        	l32r	a3, 400d01c4 <_image_irom_vaddr+0x1a4> (3ff66008 <LEDC+0xd008>)
400d166e:	f84c      	movi.n	a8, 79
400d1670:	0020c0        	memw
400d1673:	0389      	s32i.n	a8, a3, 0
400d1675:	03eaa0        	rsr.ccount	a10
400d1678:	a2b2a0        	muluh	a11, a2, a10
400d167b:	82a2a0        	mull	a10, a2, a10
400d167e:	04cd      	mov.n	a12, a4
400d1680:	0d0c      	movi.n	a13, 0
400d1682:	fa7381        	l32r	a8, 400d0050 <_image_irom_vaddr+0x30> (4000cff8 <__udivdi3>)
400d1685:	0008e0        	callx8	a8
400d1688:	13eaa0        	wsr.ccount	a10
400d168b:	facf41        	l32r	a4, 400d01c8 <_image_irom_vaddr+0x1a8> (fffc00ff <_rtc_bss_end+0xaffc00ff>)
400d168e:	113280        	slli	a3, a2, 8
400d1691:	8128      	l32i.n	a2, a1, 32
400d1693:	102240        	and	a2, a2, a4
400d1696:	202230        	or	a2, a2, a3
400d1699:	330c      	movi.n	a3, 3
400d169b:	0133d0        	slli	a3, a3, 19
400d169e:	140c      	movi.n	a4, 1
400d16a0:	8129      	s32i.n	a2, a1, 32
400d16a2:	103230        	and	a3, a2, a3
400d16a5:	0144d0        	slli	a4, a4, 19
400d16a8:	059347        	bne	a3, a4, 400d16b1 <rtc_clk_init+0x1a1>
400d16ab:	01a0a2        	movi	a10, 1
400d16ae:	ff5b25        	call8	400d0c60 <rtc_clk_32k_enable>
400d16b1:	137227        	bbci	a2, 18, 400d16c8 <rtc_clk_init+0x1b8>
400d16b4:	ffaf22        	movi	a2, -1
400d16b7:	0122c0        	slli	a2, a2, 20
400d16ba:	332a      	add.n	a3, a3, a2
400d16bc:	01a0a2        	movi	a10, 1
400d16bf:	00a0b2        	movi	a11, 0
400d16c2:	83ba30        	moveqz	a11, a10, a3
400d16c5:	ff5d65        	call8	400d0c9c <rtc_clk_8m_enable>
400d16c8:	81a8      	l32i.n	a10, a1, 32
400d16ca:	05a2a0        	extui	a10, a10, 18, 1
400d16cd:	ff6da5        	call8	400d0da8 <rtc_clk_fast_freq_set>
400d16d0:	81a8      	l32i.n	a10, a1, 32
400d16d2:	15a3a0        	extui	a10, a10, 19, 2
400d16d5:	ff67a5        	call8	400d0d50 <rtc_clk_slow_freq_set>
400d16d8:	f01d      	retw.n
	...

400d16dc <periph_ll_get_rst_en_mask>:
400d16dc:	004136        	entry	a1, 32
400d16df:	282c      	movi.n	a8, 34
400d16e1:	02b827        	bgeu	a8, a2, 400d16e7 <periph_ll_get_rst_en_mask+0xb>
400d16e4:	002f86        	j	400d17a6 <periph_ll_get_rst_en_mask+0xca>
400d16e7:	faba81        	l32r	a8, 400d01d0 <_image_irom_vaddr+0x1b0> (3f400578 <rtc_io_num_map+0xa0>)
400d16ea:	a02280        	addx4	a2, a2, a8
400d16ed:	0228      	l32i.n	a2, a2, 0
400d16ef:	0002a0        	jx	a2
400d16f2:	120c      	movi.n	a2, 1
400d16f4:	112250        	slli	a2, a2, 11
400d16f7:	002c86        	j	400d17ad <periph_ll_get_rst_en_mask+0xd1>
400d16fa:	022c      	movi.n	a2, 32
400d16fc:	002b46        	j	400d17ad <periph_ll_get_rst_en_mask+0xd1>
400d16ff:	420c      	movi.n	a2, 4
400d1701:	002a06        	j	400d17ad <periph_ll_get_rst_en_mask+0xd1>
400d1704:	120c      	movi.n	a2, 1
400d1706:	012290        	slli	a2, a2, 23
400d1709:	002806        	j	400d17ad <periph_ll_get_rst_en_mask+0xd1>
400d170c:	80a022        	movi	a2, 128
400d170f:	002686        	j	400d17ad <periph_ll_get_rst_en_mask+0xd1>
400d1712:	120c      	movi.n	a2, 1
400d1714:	0122e0        	slli	a2, a2, 18
400d1717:	002486        	j	400d17ad <periph_ll_get_rst_en_mask+0xd1>
400d171a:	021c      	movi.n	a2, 16
400d171c:	002346        	j	400d17ad <periph_ll_get_rst_en_mask+0xd1>
400d171f:	120c      	movi.n	a2, 1
400d1721:	0122b0        	slli	a2, a2, 21
400d1724:	002146        	j	400d17ad <periph_ll_get_rst_en_mask+0xd1>
400d1727:	120c      	movi.n	a2, 1
400d1729:	112230        	slli	a2, a2, 13
400d172c:	001f46        	j	400d17ad <periph_ll_get_rst_en_mask+0xd1>
400d172f:	120c      	movi.n	a2, 1
400d1731:	112210        	slli	a2, a2, 15
400d1734:	001d46        	j	400d17ad <periph_ll_get_rst_en_mask+0xd1>
400d1737:	120c      	movi.n	a2, 1
400d1739:	0122f0        	slli	a2, a2, 17
400d173c:	001b46        	j	400d17ad <periph_ll_get_rst_en_mask+0xd1>
400d173f:	120c      	movi.n	a2, 1
400d1741:	0122c0        	slli	a2, a2, 20
400d1744:	001946        	j	400d17ad <periph_ll_get_rst_en_mask+0xd1>
400d1747:	120c      	movi.n	a2, 1
400d1749:	012270        	slli	a2, a2, 25
400d174c:	001746        	j	400d17ad <periph_ll_get_rst_en_mask+0xd1>
400d174f:	120c      	movi.n	a2, 1
400d1751:	012260        	slli	a2, a2, 26
400d1754:	001546        	j	400d17ad <periph_ll_get_rst_en_mask+0xd1>
400d1757:	00a122        	movi	a2, 0x100
400d175a:	0013c6        	j	400d17ad <periph_ll_get_rst_en_mask+0xd1>
400d175d:	120c      	movi.n	a2, 1
400d175f:	112240        	slli	a2, a2, 12
400d1762:	0011c6        	j	400d17ad <periph_ll_get_rst_en_mask+0xd1>
400d1765:	00a222        	movi	a2, 0x200
400d1768:	001046        	j	400d17ad <periph_ll_get_rst_en_mask+0xd1>
400d176b:	00a422        	movi	a2, 0x400
400d176e:	000ec6        	j	400d17ad <periph_ll_get_rst_en_mask+0xd1>
400d1771:	024c      	movi.n	a2, 64
400d1773:	000d86        	j	400d17ad <periph_ll_get_rst_en_mask+0xd1>
400d1776:	120c      	movi.n	a2, 1
400d1778:	112200        	slli	a2, a2, 16
400d177b:	000b86        	j	400d17ad <periph_ll_get_rst_en_mask+0xd1>
400d177e:	120c      	movi.n	a2, 1
400d1780:	0122a0        	slli	a2, a2, 22
400d1783:	000986        	j	400d17ad <periph_ll_get_rst_en_mask+0xd1>
400d1786:	120c      	movi.n	a2, 1
400d1788:	0122d0        	slli	a2, a2, 19
400d178b:	000786        	j	400d17ad <periph_ll_get_rst_en_mask+0xd1>
400d178e:	120c      	movi.n	a2, 1
400d1790:	981c      	movi.n	a8, 25
400d1792:	0000c6        	j	400d1799 <periph_ll_get_rst_en_mask+0xbd>
400d1795:	220c      	movi.n	a2, 2
400d1797:	a80c      	movi.n	a8, 10
400d1799:	932830        	movnez	a2, a8, a3
400d179c:	000346        	j	400d17ad <periph_ll_get_rst_en_mask+0xd1>
400d179f:	420c      	movi.n	a2, 4
400d17a1:	481c      	movi.n	a8, 20
400d17a3:	fffc86        	j	400d1799 <periph_ll_get_rst_en_mask+0xbd>
400d17a6:	020c      	movi.n	a2, 0
400d17a8:	000046        	j	400d17ad <periph_ll_get_rst_en_mask+0xd1>
400d17ab:	220c      	movi.n	a2, 2
400d17ad:	f01d      	retw.n
	...

400d17b0 <periph_ll_get_rst_en_reg>:
400d17b0:	004136        	entry	a1, 32
400d17b3:	028d      	mov.n	a8, a2
400d17b5:	f21c      	movi.n	a2, 31
400d17b7:	163287        	bltu	a2, a8, 400d17d1 <periph_ll_get_rst_en_reg+0x21>
400d17ba:	891c      	movi.n	a9, 24
400d17bc:	fa8721        	l32r	a2, 400d01d8 <_image_irom_vaddr+0x1b8> (3ff000d0 <__device_handles_end+0xaff1da>)
400d17bf:	1a3987        	bltu	a9, a8, 400d17dd <periph_ll_get_rst_en_reg+0x2d>
400d17c2:	eac882        	addi	a8, a8, -22
400d17c5:	fa8521        	l32r	a2, 400d01dc <_image_irom_vaddr+0x1bc> (3ff000c4 <__device_handles_end+0xaff1ce>)
400d17c8:	1128f6        	bgeui	a8, 2, 400d17dd <periph_ll_get_rst_en_reg+0x2d>
400d17cb:	fa8321        	l32r	a2, 400d01d8 <_image_irom_vaddr+0x1b8> (3ff000d0 <__device_handles_end+0xaff1da>)
400d17ce:	0002c6        	j	400d17dd <periph_ll_get_rst_en_reg+0x2d>
400d17d1:	e0c882        	addi	a8, a8, -32
400d17d4:	fa8221        	l32r	a2, 400d01dc <_image_irom_vaddr+0x1bc> (3ff000c4 <__device_handles_end+0xaff1ce>)
400d17d7:	0238f6        	bgeui	a8, 3, 400d17dd <periph_ll_get_rst_en_reg+0x2d>
400d17da:	fa7e21        	l32r	a2, 400d01d4 <_image_irom_vaddr+0x1b4> (3ff00020 <__device_handles_end+0xaff12a>)
400d17dd:	f01d      	retw.n
	...

400d17e0 <periph_module_enable>:
400d17e0:	004136        	entry	a1, 32
400d17e3:	006350        	rsil	a5, 3
400d17e6:	fa8131        	l32r	a3, 400d01ec <_image_irom_vaddr+0x1cc> (3ffb0444 <periph_spinlock>)
400d17e9:	0359      	s32i.n	a5, a3, 0
400d17eb:	fa8131        	l32r	a3, 400d01f0 <_image_irom_vaddr+0x1d0> (3ffb05a8 <ref_counts>)
400d17ee:	432a      	add.n	a4, a3, a2
400d17f0:	000442        	l8ui	a4, a4, 0
400d17f3:	069456        	bnez	a4, 400d1860 <periph_module_enable+0x80>
400d17f6:	f61c      	movi.n	a6, 31
400d17f8:	103627        	bltu	a6, a2, 400d180c <periph_module_enable+0x2c>
400d17fb:	861c      	movi.n	a6, 24
400d17fd:	243627        	bltu	a6, a2, 400d1825 <periph_module_enable+0x45>
400d1800:	eac262        	addi	a6, a2, -22
400d1803:	fa7781        	l32r	a8, 400d01e0 <_image_irom_vaddr+0x1c0> (3ff000c0 <__device_handles_end+0xaff1ca>)
400d1806:	1e26f6        	bgeui	a6, 2, 400d1828 <periph_module_enable+0x48>
400d1809:	000606        	j	400d1825 <periph_module_enable+0x45>
400d180c:	e0c262        	addi	a6, a2, -32
400d180f:	fa7581        	l32r	a8, 400d01e4 <_image_irom_vaddr+0x1c4> (3ff0001c <__device_handles_end+0xaff126>)
400d1812:	1236b6        	bltui	a6, 3, 400d1828 <periph_module_enable+0x48>
400d1815:	fa7281        	l32r	a8, 400d01e0 <_image_irom_vaddr+0x1c0> (3ff000c0 <__device_handles_end+0xaff1ca>)
400d1818:	046d      	mov.n	a6, a4
400d181a:	0020c0        	memw
400d181d:	0898      	l32i.n	a9, a8, 0
400d181f:	000506        	j	400d1837 <periph_module_enable+0x57>
400d1822:	00          	.byte 00
400d1823:	00          	.byte 00
400d1824:	00          	.byte 00
400d1825:	fa7081        	l32r	a8, 400d01e8 <_image_irom_vaddr+0x1c8> (3ff000cc <__device_handles_end+0xaff1d6>)
400d1828:	fa73a1        	l32r	a10, 400d01f4 <_image_irom_vaddr+0x1d4> (3f400604 <CSWTCH$8>)
400d182b:	0020c0        	memw
400d182e:	002892        	l32i	a9, a8, 0
400d1831:	a0a2a0        	addx4	a10, a2, a10
400d1834:	002a62        	l32i	a6, a10, 0
400d1837:	209960        	or	a9, a9, a6
400d183a:	0020c0        	memw
400d183d:	0899      	s32i.n	a9, a8, 0
400d183f:	02ad      	mov.n	a10, a2
400d1841:	fff6e5        	call8	400d17b0 <periph_ll_get_rst_en_reg>
400d1844:	0020c0        	memw
400d1847:	0a78      	l32i.n	a7, a10, 0
400d1849:	0a6d      	mov.n	a6, a10
400d184b:	1b0c      	movi.n	a11, 1
400d184d:	02ad      	mov.n	a10, a2
400d184f:	ffe8e5        	call8	400d16dc <periph_ll_get_rst_en_mask>
400d1852:	f87c      	movi.n	a8, -1
400d1854:	30a8a0        	xor	a10, a8, a10
400d1857:	10aa70        	and	a10, a10, a7
400d185a:	0020c0        	memw
400d185d:	0066a2        	s32i	a10, a6, 0
400d1860:	332a      	add.n	a3, a3, a2
400d1862:	441b      	addi.n	a4, a4, 1
400d1864:	004342        	s8i	a4, a3, 0
400d1867:	13e650        	wsr.ps	a5
400d186a:	002010        	rsync
400d186d:	f01d      	retw.n
	...

400d1870 <periph_module_disable>:
400d1870:	004136        	entry	a1, 32
400d1873:	006330        	rsil	a3, 3
400d1876:	fa5e81        	l32r	a8, 400d01f0 <_image_irom_vaddr+0x1d0> (3ffb05a8 <ref_counts>)
400d1879:	fa5c41        	l32r	a4, 400d01ec <_image_irom_vaddr+0x1cc> (3ffb0444 <periph_spinlock>)
400d187c:	882a      	add.n	a8, a8, a2
400d187e:	000892        	l8ui	a9, a8, 0
400d1881:	0439      	s32i.n	a3, a4, 0
400d1883:	990b      	addi.n	a9, a9, -1
400d1885:	749090        	extui	a9, a9, 0, 8
400d1888:	004892        	s8i	a9, a8, 0
400d188b:	062956        	bnez	a9, 400d18f1 <periph_module_disable+0x81>
400d188e:	f41c      	movi.n	a4, 31
400d1890:	103427        	bltu	a4, a2, 400d18a4 <periph_module_disable+0x34>
400d1893:	841c      	movi.n	a4, 24
400d1895:	203427        	bltu	a4, a2, 400d18b9 <periph_module_disable+0x49>
400d1898:	eac242        	addi	a4, a2, -22
400d189b:	fa5181        	l32r	a8, 400d01e0 <_image_irom_vaddr+0x1c0> (3ff000c0 <__device_handles_end+0xaff1ca>)
400d189e:	1a24f6        	bgeui	a4, 2, 400d18bc <periph_module_disable+0x4c>
400d18a1:	000506        	j	400d18b9 <periph_module_disable+0x49>
400d18a4:	e0c242        	addi	a4, a2, -32
400d18a7:	fa4f81        	l32r	a8, 400d01e4 <_image_irom_vaddr+0x1c4> (3ff0001c <__device_handles_end+0xaff126>)
400d18aa:	0e34b6        	bltui	a4, 3, 400d18bc <periph_module_disable+0x4c>
400d18ad:	fa4c81        	l32r	a8, 400d01e0 <_image_irom_vaddr+0x1c0> (3ff000c0 <__device_handles_end+0xaff1ca>)
400d18b0:	0020c0        	memw
400d18b3:	08b8      	l32i.n	a11, a8, 0
400d18b5:	000406        	j	400d18c9 <periph_module_disable+0x59>
400d18b8:	00          	.byte 00
400d18b9:	fa4b81        	l32r	a8, 400d01e8 <_image_irom_vaddr+0x1c8> (3ff000cc <__device_handles_end+0xaff1d6>)
400d18bc:	fa4e41        	l32r	a4, 400d01f4 <_image_irom_vaddr+0x1d4> (3f400604 <CSWTCH$8>)
400d18bf:	0020c0        	memw
400d18c2:	08b8      	l32i.n	a11, a8, 0
400d18c4:	a04240        	addx4	a4, a2, a4
400d18c7:	0498      	l32i.n	a9, a4, 0
400d18c9:	fa7c      	movi.n	a10, -1
400d18cb:	309a90        	xor	a9, a10, a9
400d18ce:	1099b0        	and	a9, a9, a11
400d18d1:	0020c0        	memw
400d18d4:	0899      	s32i.n	a9, a8, 0
400d18d6:	02ad      	mov.n	a10, a2
400d18d8:	ffed65        	call8	400d17b0 <periph_ll_get_rst_en_reg>
400d18db:	0020c0        	memw
400d18de:	0a48      	l32i.n	a4, a10, 0
400d18e0:	0a5d      	mov.n	a5, a10
400d18e2:	0b0c      	movi.n	a11, 0
400d18e4:	02ad      	mov.n	a10, a2
400d18e6:	ffdf65        	call8	400d16dc <periph_ll_get_rst_en_mask>
400d18e9:	20a4a0        	or	a10, a4, a10
400d18ec:	0020c0        	memw
400d18ef:	05a9      	s32i.n	a10, a5, 0
400d18f1:	13e630        	wsr.ps	a3
400d18f4:	002010        	rsync
400d18f7:	f01d      	retw.n
400d18f9:	000000        	ill

400d18fc <interrupt_controller_hal_desc_type>:
400d18fc:	004136        	entry	a1, 32
400d18ff:	0003e5        	call8	400d193c <interrupt_controller_hal_desc_table>
400d1902:	1122c0        	slli	a2, a2, 4
400d1905:	802a20        	add	a2, a10, a2
400d1908:	012222        	l32i	a2, a2, 4
400d190b:	000090        	retw
	...

400d1910 <interrupt_controller_hal_desc_level>:
400d1910:	004136        	entry	a1, 32
400d1913:	0002a5        	call8	400d193c <interrupt_controller_hal_desc_table>
400d1916:	1122c0        	slli	a2, a2, 4
400d1919:	802a20        	add	a2, a10, a2
400d191c:	002222        	l32i	a2, a2, 0
400d191f:	000090        	retw
	...

400d1924 <interrupt_controller_hal_desc_flags>:
400d1924:	004136        	entry	a1, 32
400d1927:	000165        	call8	400d193c <interrupt_controller_hal_desc_table>
400d192a:	1122c0        	slli	a2, a2, 4
400d192d:	802a20        	add	a2, a10, a2
400d1930:	a03320        	addx4	a3, a3, a2
400d1933:	022322        	l32i	a2, a3, 8
400d1936:	000090        	retw
400d1939:	000000        	ill

400d193c <interrupt_controller_hal_desc_table>:
400d193c:	004136        	entry	a1, 32
400d193f:	fa2e21        	l32r	a2, 400d01f8 <_image_irom_vaddr+0x1d8> (3f400690 <interrupt_descriptor_table>)
400d1942:	f01d      	retw.n

400d1944 <z_esp_aligned_alloc$constprop$0>:
400d1944:	004136        	entry	a1, 32
400d1947:	c24b      	addi.n	a12, a2, 4
400d1949:	04bc27        	bgeu	a12, a2, 400d1951 <z_esp_aligned_alloc$constprop$0+0xd>
400d194c:	020c      	movi.n	a2, 0
400d194e:	000546        	j	400d1967 <z_esp_aligned_alloc$constprop$0+0x23>
400d1951:	fa2a21        	l32r	a2, 400d01fc <_image_irom_vaddr+0x1dc> (3ffb0370 <_internal_heap_1>)
400d1954:	0e0c      	movi.n	a14, 0
400d1956:	0efd      	mov.n	a15, a14
400d1958:	4b0c      	movi.n	a11, 4
400d195a:	20a220        	or	a10, a2, a2
400d195d:	af7f25        	call8	40081150 <k_heap_aligned_alloc>
400d1960:	fe8a16        	beqz	a10, 400d194c <z_esp_aligned_alloc$constprop$0+0x8>
400d1963:	0a29      	s32i.n	a2, a10, 0
400d1965:	2a4b      	addi.n	a2, a10, 4
400d1967:	f01d      	retw.n
400d1969:	000000        	ill

400d196c <k_malloc>:
400d196c:	004136        	entry	a1, 32
400d196f:	02ad      	mov.n	a10, a2
400d1971:	fffd25        	call8	400d1944 <z_esp_aligned_alloc$constprop$0>
400d1974:	0a2d      	mov.n	a2, a10
400d1976:	f01d      	retw.n

400d1978 <arch_irq_connect_dynamic>:
400d1978:	004136        	entry	a1, 32
400d197b:	fa2181        	l32r	a8, 400d0200 <_image_irom_vaddr+0x1e0> (3ffb025c <_sw_isr_table>)
400d197e:	b08280        	addx8	a8, a2, a8
400d1981:	0859      	s32i.n	a5, a8, 0
400d1983:	1849      	s32i.n	a4, a8, 4
400d1985:	f01d      	retw.n
	...

400d1988 <abort>:
400d1988:	004136        	entry	a1, 32
400d198b:	fa1ea1        	l32r	a10, 400d0204 <_image_irom_vaddr+0x1e4> (3f400cbc <CSWTCH$43+0x1c2>)
400d198e:	b11565        	call8	40082ae4 <printk>
400d1991:	04a0a2        	movi	a10, 4
400d1994:	aef565        	call8	400808ec <xtensa_arch_except>
400d1997:	000090        	retw
	...

400d199c <__stdout_hook_install>:
400d199c:	004136        	entry	a1, 32
400d199f:	fa1a81        	l32r	a8, 400d0208 <_image_irom_vaddr+0x1e8> (3ffb0004 <_stdout_hook>)
400d19a2:	0829      	s32i.n	a2, a8, 0
400d19a4:	f01d      	retw.n
	...

400d19a8 <esp_intr_lock>:
400d19a8:	004136        	entry	a1, 32
400d19ab:	006390        	rsil	a9, 3
400d19ae:	fa1781        	l32r	a8, 400d020c <_image_irom_vaddr+0x1ec> (3ffb0558 <esp_intc_csec>)
400d19b1:	0899      	s32i.n	a9, a8, 0
400d19b3:	f01d      	retw.n
400d19b5:	000000        	ill

400d19b8 <esp_intr_unlock>:
400d19b8:	004136        	entry	a1, 32
400d19bb:	fa1481        	l32r	a8, 400d020c <_image_irom_vaddr+0x1ec> (3ffb0558 <esp_intc_csec>)
400d19be:	0888      	l32i.n	a8, a8, 0
400d19c0:	13e680        	wsr.ps	a8
400d19c3:	002010        	rsync
400d19c6:	f01d      	retw.n

400d19c8 <find_desc_for_int>:
400d19c8:	004136        	entry	a1, 32
400d19cb:	fa1181        	l32r	a8, 400d0210 <_image_irom_vaddr+0x1f0> (3ffb0454 <vector_desc_head>)
400d19ce:	0888      	l32i.n	a8, a8, 0
400d19d0:	000406        	j	400d19e4 <find_desc_for_int+0x1c>
400d19d3:	00          	.byte 00
400d19d4:	0898      	l32i.n	a9, a8, 0
400d19d6:	05a090        	extui	a10, a9, 16, 1
400d19d9:	059a37        	bne	a10, a3, 400d19e2 <find_desc_for_int+0x1a>
400d19dc:	459190        	extui	a9, a9, 17, 5
400d19df:	041927        	beq	a9, a2, 400d19e7 <find_desc_for_int+0x1f>
400d19e2:	2888      	l32i.n	a8, a8, 8
400d19e4:	fec856        	bnez	a8, 400d19d4 <find_desc_for_int+0xc>
400d19e7:	082d      	mov.n	a2, a8
400d19e9:	f01d      	retw.n
	...

400d19ec <default_intr_handler>:
400d19ec:	004136        	entry	a1, 32
400d19ef:	02bd      	mov.n	a11, a2
400d19f1:	03ebc0        	rsr.prid	a12
400d19f4:	04cdc0        	extui	a12, a12, 13, 1
400d19f7:	fa07a1        	l32r	a10, 400d0214 <_image_irom_vaddr+0x1f4> (3f400cc5 <CSWTCH$43+0x1cb>)
400d19fa:	b10ea5        	call8	40082ae4 <printk>
400d19fd:	f01d      	retw.n
	...

400d1a00 <is_vect_desc_usable>:
400d1a00:	004136        	entry	a1, 32
400d1a03:	002262        	l32i	a6, a2, 0
400d1a06:	04bd      	mov.n	a11, a4
400d1a08:	456160        	extui	a6, a6, 17, 5
400d1a0b:	06ad      	mov.n	a10, a6
400d1a0d:	027d      	mov.n	a7, a2
400d1a0f:	fff165        	call8	400d1924 <interrupt_controller_hal_desc_flags>
400d1a12:	020c      	movi.n	a2, 0
400d1a14:	029d      	mov.n	a9, a2
400d1a16:	781a26        	beqi	a10, 1, 400d1a92 <is_vect_desc_usable+0x92>
400d1a19:	180c      	movi.n	a8, 1
400d1a1b:	02bd      	mov.n	a11, a2
400d1a1d:	fecaa2        	addi	a10, a10, -2
400d1a20:	558a      	add.n	a5, a5, a8
400d1a22:	83b8a0        	moveqz	a11, a8, a10
400d1a25:	938250        	movnez	a8, a2, a5
400d1a28:	102b80        	and	a2, a11, a8
400d1a2b:	619297        	bne	a2, a9, 400d1a90 <is_vect_desc_usable+0x90>
400d1a2e:	20a660        	or	a10, a6, a6
400d1a31:	ffede5        	call8	400d1910 <interrupt_controller_hal_desc_level>
400d1a34:	5a53a7        	bbc	a3, a10, 400d1a92 <is_vect_desc_usable+0x92>
400d1a37:	06ad      	mov.n	a10, a6
400d1a39:	ffec25        	call8	400d18fc <interrupt_controller_hal_desc_type>
400d1a3c:	056397        	bbci	a3, 9, 400d1a45 <is_vect_desc_usable+0x45>
400d1a3f:	5acc      	bnez.n	a10, 400d1a48 <is_vect_desc_usable+0x48>
400d1a41:	001346        	j	400d1a92 <is_vect_desc_usable+0x92>
400d1a44:	00          	.byte 00
400d1a45:	491a26        	beqi	a10, 1, 400d1a92 <is_vect_desc_usable+0x92>
400d1a48:	001792        	l16ui	a9, a7, 0
400d1a4b:	980c      	movi.n	a8, 9
400d1a4d:	237980        	sext	a7, a9, 15
400d1a50:	108780        	and	a8, a7, a8
400d1a53:	238880        	sext	a8, a8, 15
400d1a56:	88fc      	bnez.n	a8, 400d1a92 <is_vect_desc_usable+0x92>
400d1a58:	450c      	movi.n	a5, 4
400d1a5a:	107750        	and	a7, a7, a5
400d1a5d:	237780        	sext	a7, a7, 15
400d1a60:	479c      	beqz.n	a7, 400d1a78 <is_vect_desc_usable+0x78>
400d1a62:	2c6387        	bbci	a3, 8, 400d1a92 <is_vect_desc_usable+0x92>
400d1a65:	043a30        	extui	a3, a3, 10, 1
400d1a68:	049190        	extui	a9, a9, 1, 1
400d1a6b:	c03390        	sub	a3, a3, a9
400d1a6e:	120c      	movi.n	a2, 1
400d1a70:	932830        	movnez	a2, a8, a3
400d1a73:	0006c6        	j	400d1a92 <is_vect_desc_usable+0x92>
400d1a76:	00          	.byte 00
400d1a77:	00          	.byte 00
400d1a78:	f9e821        	l32r	a2, 400d0218 <_image_irom_vaddr+0x1f8> (3ffb0458 <intr_alloc_table>)
400d1a7b:	664a      	add.n	a6, a6, a4
400d1a7d:	b06620        	addx8	a6, a6, a2
400d1a80:	0638      	l32i.n	a3, a6, 0
400d1a82:	f9e621        	l32r	a2, 400d021c <_image_irom_vaddr+0x1fc> (400d19ec <default_intr_handler>)
400d1a85:	c03320        	sub	a3, a3, a2
400d1a88:	120c      	movi.n	a2, 1
400d1a8a:	932730        	movnez	a2, a7, a3
400d1a8d:	000046        	j	400d1a92 <is_vect_desc_usable+0x92>
400d1a90:	092d      	mov.n	a2, a9
400d1a92:	f01d      	retw.n

400d1a94 <get_desc_for_int>:
400d1a94:	004136        	entry	a1, 32
400d1a97:	20b330        	or	a11, a3, a3
400d1a9a:	20a220        	or	a10, a2, a2
400d1a9d:	fff2a5        	call8	400d19c8 <find_desc_for_int>
400d1aa0:	0a5d      	mov.n	a5, a10
400d1aa2:	0a4d      	mov.n	a4, a10
400d1aa4:	075a56        	bnez	a10, 400d1b1d <get_desc_for_int+0x89>
400d1aa7:	ca0c      	movi.n	a10, 12
400d1aa9:	ffec25        	call8	400d196c <k_malloc>
400d1aac:	0a4d      	mov.n	a4, a10
400d1aae:	06ba16        	beqz	a10, 400d1b1d <get_desc_for_int+0x89>
400d1ab1:	cc0c      	movi.n	a12, 12
400d1ab3:	05bd      	mov.n	a11, a5
400d1ab5:	b10ae5        	call8	40082b64 <memset>
400d1ab8:	0488      	l32i.n	a8, a4, 0
400d1aba:	f9d9a1        	l32r	a10, 400d0220 <_image_irom_vaddr+0x200> (ffc1ffff <_rtc_bss_end+0xafc1ffff>)
400d1abd:	449020        	extui	a9, a2, 0, 5
400d1ac0:	0129f0        	slli	a2, a9, 17
400d1ac3:	1088a0        	and	a8, a8, a10
400d1ac6:	208820        	or	a8, a8, a2
400d1ac9:	f9d621        	l32r	a2, 400d0224 <_image_irom_vaddr+0x204> (fffeffff <_rtc_bss_end+0xaffeffff>)
400d1acc:	04a030        	extui	a10, a3, 0, 1
400d1acf:	113a00        	slli	a3, a10, 16
400d1ad2:	108820        	and	a8, a8, a2
400d1ad5:	208830        	or	a8, a8, a3
400d1ad8:	f9ceb1        	l32r	a11, 400d0210 <_image_irom_vaddr+0x1f0> (3ffb0454 <vector_desc_head>)
400d1adb:	0489      	s32i.n	a8, a4, 0
400d1add:	0bc8      	l32i.n	a12, a11, 0
400d1adf:	0c8d      	mov.n	a8, a12
400d1ae1:	000646        	j	400d1afe <get_desc_for_int+0x6a>
400d1ae4:	0828      	l32i.n	a2, a8, 0
400d1ae6:	053020        	extui	a3, a2, 16, 1
400d1ae9:	143a37        	bltu	a10, a3, 400d1b01 <get_desc_for_int+0x6d>
400d1aec:	0438      	l32i.n	a3, a4, 0
400d1aee:	303230        	xor	a3, a2, a3
400d1af1:	05f307        	bbsi	a3, 16, 400d1afa <get_desc_for_int+0x66>
400d1af4:	452120        	extui	a2, a2, 17, 5
400d1af7:	06b297        	bgeu	a2, a9, 400d1b01 <get_desc_for_int+0x6d>
400d1afa:	085d      	mov.n	a5, a8
400d1afc:	2888      	l32i.n	a8, a8, 8
400d1afe:	fe2856        	bnez	a8, 400d1ae4 <get_desc_for_int+0x50>
400d1b01:	120c      	movi.n	a2, 1
400d1b03:	030c      	movi.n	a3, 0
400d1b05:	833250        	moveqz	a3, a2, a5
400d1b08:	749030        	extui	a9, a3, 0, 8
400d1b0b:	33cc      	bnez.n	a3, 400d1b12 <get_desc_for_int+0x7e>
400d1b0d:	9329c0        	movnez	a2, a9, a12
400d1b10:	528c      	beqz.n	a2, 400d1b19 <get_desc_for_int+0x85>
400d1b12:	2489      	s32i.n	a8, a4, 8
400d1b14:	0b49      	s32i.n	a4, a11, 0
400d1b16:	0000c6        	j	400d1b1d <get_desc_for_int+0x89>
400d1b19:	2549      	s32i.n	a4, a5, 8
400d1b1b:	2489      	s32i.n	a8, a4, 8
400d1b1d:	042d      	mov.n	a2, a4
400d1b1f:	f01d      	retw.n
400d1b21:	000000        	ill

400d1b24 <set_interrupt_handler>:
400d1b24:	004136        	entry	a1, 32
400d1b27:	01a052        	movi	a5, 1
400d1b2a:	20a220        	or	a10, a2, a2
400d1b2d:	20c330        	or	a12, a3, a3
400d1b30:	04dd      	mov.n	a13, a4
400d1b32:	401200        	ssl	a2
400d1b35:	a15500        	sll	a5, a5
400d1b38:	03e490        	rsr.intenable	a9
400d1b3b:	f87c      	movi.n	a8, -1
400d1b3d:	308850        	xor	a8, a8, a5
400d1b40:	108890        	and	a8, a8, a9
400d1b43:	13e480        	wsr.intenable	a8
400d1b46:	002010        	rsync
400d1b49:	f9b381        	l32r	a8, 400d0218 <_image_irom_vaddr+0x1f8> (3ffb0458 <intr_alloc_table>)
400d1b4c:	0e0c      	movi.n	a14, 0
400d1b4e:	b08280        	addx8	a8, a2, a8
400d1b51:	0839      	s32i.n	a3, a8, 0
400d1b53:	02bd      	mov.n	a11, a2
400d1b55:	ffe225        	call8	400d1978 <arch_irq_connect_dynamic>
400d1b58:	03e480        	rsr.intenable	a8
400d1b5b:	205580        	or	a5, a5, a8
400d1b5e:	13e450        	wsr.intenable	a5
400d1b61:	002010        	rsync
400d1b64:	f01d      	retw.n
	...

400d1b68 <esp_intr_initialize>:
400d1b68:	004136        	entry	a1, 32
400d1b6b:	f9ab81        	l32r	a8, 400d0218 <_image_irom_vaddr+0x1f8> (3ffb0458 <intr_alloc_table>)
400d1b6e:	f9abb1        	l32r	a11, 400d021c <_image_irom_vaddr+0x1fc> (400d19ec <default_intr_handler>)
400d1b71:	0a0c      	movi.n	a10, 0
400d1b73:	092c      	movi.n	a9, 32
400d1b75:	078976        	loop	a9, 400d1b80 <esp_intr_initialize+0x18>
400d1b78:	18a9      	s32i.n	a10, a8, 4
400d1b7a:	08b9      	s32i.n	a11, a8, 0
400d1b7c:	aa1b      	addi.n	a10, a10, 1
400d1b7e:	888b      	addi.n	a8, a8, 8
400d1b80:	f01d      	retw.n
	...

400d1b84 <esp_intr_alloc_intrstatus>:
400d1b84:	00c136        	entry	a1, 96
400d1b87:	9159      	s32i.n	a5, a1, 36
400d1b89:	00a352        	movi	a5, 0x300
400d1b8c:	8149      	s32i.n	a4, a1, 32
400d1b8e:	5169      	s32i.n	a6, a1, 20
400d1b90:	a179      	s32i.n	a7, a1, 40
400d1b92:	106350        	and	a6, a3, a5
400d1b95:	a46c      	movi.n	a4, -22
400d1b97:	029657        	bne	a6, a5, 400d1b9d <esp_intr_alloc_intrstatus+0x19>
400d1b9a:	00d7c6        	j	400d1efd <esp_intr_alloc_intrstatus+0x379>
400d1b9d:	f0a042        	movi	a4, 240
400d1ba0:	104340        	and	a4, a3, a4
400d1ba3:	149c      	beqz.n	a4, 400d1bb8 <esp_intr_alloc_intrstatus+0x34>
400d1ba5:	5158      	l32i.n	a5, a1, 20
400d1ba7:	a46c      	movi.n	a4, -22
400d1ba9:	350556        	bnez	a5, 400d1efd <esp_intr_alloc_intrstatus+0x379>
400d1bac:	00a152        	movi	a5, 0x100
400d1baf:	105350        	and	a5, a3, a5
400d1bb2:	347556        	bnez	a5, 400d1efd <esp_intr_alloc_intrstatus+0x379>
400d1bb5:	000506        	j	400d1bcd <esp_intr_alloc_intrstatus+0x49>
400d1bb8:	00a152        	movi	a5, 0x100
400d1bbb:	105350        	and	a5, a3, a5
400d1bbe:	b58c      	beqz.n	a5, 400d1bcd <esp_intr_alloc_intrstatus+0x49>
400d1bc0:	5188      	l32i.n	a8, a1, 20
400d1bc2:	160c      	movi.n	a6, 1
400d1bc4:	834680        	moveqz	a4, a6, a8
400d1bc7:	306456        	bnez	a4, 400d1ed1 <esp_intr_alloc_intrstatus+0x34d>
400d1bca:	303296        	bltz	a2, 400d1ed1 <esp_intr_alloc_intrstatus+0x34d>
400d1bcd:	8148      	l32i.n	a4, a1, 32
400d1bcf:	548c      	beqz.n	a4, 400d1bd8 <esp_intr_alloc_intrstatus+0x54>
400d1bd1:	9188      	l32i.n	a8, a1, 36
400d1bd3:	a46c      	movi.n	a4, -22
400d1bd5:	324816        	beqz	a8, 400d1efd <esp_intr_alloc_intrstatus+0x379>
400d1bd8:	1163a7        	bbci	a3, 10, 400d1bed <esp_intr_alloc_intrstatus+0x69>
400d1bdb:	5148      	l32i.n	a4, a1, 20
400d1bdd:	f99261        	l32r	a6, 400d0228 <_image_irom_vaddr+0x208> (bff3e000 <_rtc_bss_end+0x6ff3e000>)
400d1be0:	f99371        	l32r	a7, 400d022c <_image_irom_vaddr+0x20c> (ff3dfff <CONFIG_SYS_CLOCK_HW_CYCLES_PER_SEC+0x1a5c3ff>)
400d1be3:	646a      	add.n	a6, a4, a6
400d1be5:	a46c      	movi.n	a4, -22
400d1be7:	023767        	bltu	a7, a6, 400d1bed <esp_intr_alloc_intrstatus+0x69>
400d1bea:	00c3c6        	j	400d1efd <esp_intr_alloc_intrstatus+0x379>
400d1bed:	fea042        	movi	a4, 254
400d1bf0:	088347        	bany	a3, a4, 400d1bfc <esp_intr_alloc_intrstatus+0x78>
400d1bf3:	240c      	movi.n	a4, 2
400d1bf5:	05cc      	bnez.n	a5, 400d1bf9 <esp_intr_alloc_intrstatus+0x75>
400d1bf7:	e40c      	movi.n	a4, 14
400d1bf9:	203340        	or	a3, a3, a4
400d1bfc:	06c252        	addi	a5, a2, 6
400d1bff:	f47c      	movi.n	a4, -1
400d1c01:	0a65f6        	bgeui	a5, 6, 400d1c0f <esp_intr_alloc_intrstatus+0x8b>
400d1c04:	f98b41        	l32r	a4, 400d0230 <_image_irom_vaddr+0x210> (3f400ce8 <CSWTCH$227>)
400d1c07:	445a      	add.n	a4, a4, a5
400d1c09:	000442        	l8ui	a4, a4, 0
400d1c0c:	234400        	sext	a4, a4, 7
400d1c0f:	8a0c      	movi.n	a10, 8
400d1c11:	ffd5a5        	call8	400d196c <k_malloc>
400d1c14:	41a9      	s32i.n	a10, a1, 16
400d1c16:	2b2a16        	beqz	a10, 400d1ecc <esp_intr_alloc_intrstatus+0x348>
400d1c19:	ffd8e5        	call8	400d19a8 <esp_intr_lock>
400d1c1c:	03eb50        	rsr.prid	a5
400d1c1f:	045d50        	extui	a5, a5, 13, 1
400d1c22:	cc0c      	movi.n	a12, 12
400d1c24:	00a0b2        	movi	a11, 0
400d1c27:	20a110        	or	a10, a1, a1
400d1c2a:	b0f3a5        	call8	40082b64 <memset>
400d1c2d:	fea072        	movi	a7, 254
400d1c30:	6139      	s32i.n	a3, a1, 24
400d1c32:	068377        	bany	a3, a7, 400d1c3c <esp_intr_alloc_intrstatus+0xb8>
400d1c35:	e70c      	movi.n	a7, 14
400d1c37:	206370        	or	a6, a3, a7
400d1c3a:	6169      	s32i.n	a6, a1, 24
400d1c3c:	f97571        	l32r	a7, 400d0210 <_image_irom_vaddr+0x1f0> (3ffb0454 <vector_desc_head>)
400d1c3f:	4a0c      	movi.n	a10, 4
400d1c41:	0788      	l32i.n	a8, a7, 0
400d1c43:	0010c6        	j	400d1c8a <esp_intr_alloc_intrstatus+0x106>
400d1c46:	00          	.byte 00
400d1c47:	00          	.byte 00
400d1c48:	001892        	l16ui	a9, a8, 0
400d1c4b:	0878      	l32i.n	a7, a8, 0
400d1c4d:	1099a0        	and	a9, a9, a10
400d1c50:	239980        	sext	a9, a9, 15
400d1c53:	19dc      	bnez.n	a9, 400d1c68 <esp_intr_alloc_intrstatus+0xe4>
400d1c55:	1197e0        	slli	a9, a7, 2
400d1c58:	319890        	srai	a9, a9, 24
400d1c5b:	299297        	bne	a2, a9, 400d1c88 <esp_intr_alloc_intrstatus+0x104>
400d1c5e:	059070        	extui	a9, a7, 16, 1
400d1c61:	239597        	bne	a5, a9, 400d1c88 <esp_intr_alloc_intrstatus+0x104>
400d1c64:	00a306        	j	400d1ef4 <esp_intr_alloc_intrstatus+0x370>
400d1c67:	00          	.byte 00
400d1c68:	059070        	extui	a9, a7, 16, 1
400d1c6b:	199597        	bne	a5, a9, 400d1c88 <esp_intr_alloc_intrstatus+0x104>
400d1c6e:	18b8      	l32i.n	a11, a8, 4
400d1c70:	000446        	j	400d1c85 <esp_intr_alloc_intrstatus+0x101>
400d1c73:	00          	.byte 00
400d1c74:	00          	.byte 00
400d1c75:	0b98      	l32i.n	a9, a11, 0
400d1c77:	019990        	slli	a9, a9, 23
400d1c7a:	319890        	srai	a9, a9, 24
400d1c7d:	029297        	bne	a2, a9, 400d1c83 <esp_intr_alloc_intrstatus+0xff>
400d1c80:	009c06        	j	400d1ef4 <esp_intr_alloc_intrstatus+0x370>
400d1c83:	5bb8      	l32i.n	a11, a11, 20
400d1c85:	fecb56        	bnez	a11, 400d1c75 <esp_intr_alloc_intrstatus+0xf1>
400d1c88:	2888      	l32i.n	a8, a8, 8
400d1c8a:	fba856        	bnez	a8, 400d1c48 <esp_intr_alloc_intrstatus+0xc4>
400d1c8d:	009146        	j	400d1ed6 <esp_intr_alloc_intrstatus+0x352>
400d1c90:	457170        	extui	a7, a7, 17, 5
400d1c93:	021477        	beq	a4, a7, 400d1c99 <esp_intr_alloc_intrstatus+0x115>
400d1c96:	003986        	j	400d1d80 <esp_intr_alloc_intrstatus+0x1fc>
400d1c99:	0621b2        	l32i	a11, a1, 24
400d1c9c:	20a880        	or	a10, a8, a8
400d1c9f:	0c6182        	s32i	a8, a1, 48
400d1ca2:	04dd      	mov.n	a13, a4
400d1ca4:	05cd      	mov.n	a12, a5
400d1ca6:	ffd5a5        	call8	400d1a00 <is_vect_desc_usable>
400d1ca9:	c188      	l32i.n	a8, a1, 48
400d1cab:	0d1a16        	beqz	a10, 400d1d80 <esp_intr_alloc_intrstatus+0x1fc>
400d1cae:	0848      	l32i.n	a4, a8, 0
400d1cb0:	000d46        	j	400d1ce9 <esp_intr_alloc_intrstatus+0x165>
400d1cb3:	20b550        	or	a11, a5, a5
400d1cb6:	20a440        	or	a10, a4, a4
400d1cb9:	ffd0e5        	call8	400d19c8 <find_desc_for_int>
400d1cbc:	207aa0        	or	a7, a10, a10
400d1cbf:	3adc      	bnez.n	a10, 400d1cd6 <esp_intr_alloc_intrstatus+0x152>
400d1cc1:	0178      	l32i.n	a7, a1, 0
400d1cc3:	f95791        	l32r	a9, 400d0220 <_image_irom_vaddr+0x200> (ffc1ffff <_rtc_bss_end+0xafc1ffff>)
400d1cc6:	448040        	extui	a8, a4, 0, 5
400d1cc9:	0188f0        	slli	a8, a8, 17
400d1ccc:	107790        	and	a7, a7, a9
400d1ccf:	207780        	or	a7, a7, a8
400d1cd2:	0179      	s32i.n	a7, a1, 0
400d1cd4:	017d      	mov.n	a7, a1
400d1cd6:	0621b2        	l32i	a11, a1, 24
400d1cd9:	20d440        	or	a13, a4, a4
400d1cdc:	20c550        	or	a12, a5, a5
400d1cdf:	07ad      	mov.n	a10, a7
400d1ce1:	ffd1e5        	call8	400d1a00 <is_vect_desc_usable>
400d1ce4:	098a16        	beqz	a10, 400d1d80 <esp_intr_alloc_intrstatus+0x1fc>
400d1ce7:	0748      	l32i.n	a4, a7, 0
400d1ce9:	454140        	extui	a4, a4, 17, 5
400d1cec:	002806        	j	400d1d90 <esp_intr_alloc_intrstatus+0x20c>
400d1cef:	00          	.byte 00
400d1cf0:	05bd      	mov.n	a11, a5
400d1cf2:	06ad      	mov.n	a10, a6
400d1cf4:	ffcd25        	call8	400d19c8 <find_desc_for_int>
400d1cf7:	0a9d      	mov.n	a9, a10
400d1cf9:	3adc      	bnez.n	a10, 400d1d10 <esp_intr_alloc_intrstatus+0x18c>
400d1cfb:	0198      	l32i.n	a9, a1, 0
400d1cfd:	f94881        	l32r	a8, 400d0220 <_image_irom_vaddr+0x200> (ffc1ffff <_rtc_bss_end+0xafc1ffff>)
400d1d00:	44a060        	extui	a10, a6, 0, 5
400d1d03:	01aaf0        	slli	a10, a10, 17
400d1d06:	109980        	and	a9, a9, a8
400d1d09:	2099a0        	or	a9, a9, a10
400d1d0c:	0199      	s32i.n	a9, a1, 0
400d1d0e:	019d      	mov.n	a9, a1
400d1d10:	0621b2        	l32i	a11, a1, 24
400d1d13:	20a990        	or	a10, a9, a9
400d1d16:	0c6192        	s32i	a9, a1, 48
400d1d19:	fd7c      	movi.n	a13, -1
400d1d1b:	05cd      	mov.n	a12, a5
400d1d1d:	ffce25        	call8	400d1a00 <is_vect_desc_usable>
400d1d20:	c198      	l32i.n	a9, a1, 48
400d1d22:	04fa16        	beqz	a10, 400d1d75 <esp_intr_alloc_intrstatus+0x1f1>
400d1d25:	b188      	l32i.n	a8, a1, 44
400d1d27:	58bc      	beqz.n	a8, 400d1d60 <esp_intr_alloc_intrstatus+0x1dc>
400d1d29:	0019a2        	l16ui	a10, a9, 0
400d1d2c:	480c      	movi.n	a8, 4
400d1d2e:	10aa80        	and	a10, a10, a8
400d1d31:	23aa80        	sext	a10, a10, 15
400d1d34:	5aac      	beqz.n	a10, 400d1d5d <esp_intr_alloc_intrstatus+0x1d9>
400d1d36:	19a8      	l32i.n	a10, a9, 4
400d1d38:	090c      	movi.n	a9, 0
400d1d3a:	000146        	j	400d1d43 <esp_intr_alloc_intrstatus+0x1bf>
400d1d3d:	052aa2        	l32i	a10, a10, 20
400d1d40:	01c992        	addi	a9, a9, 1
400d1d43:	ff6a56        	bnez	a10, 400d1d3d <esp_intr_alloc_intrstatus+0x1b9>
400d1d46:	0c6192        	s32i	a9, a1, 48
400d1d49:	06ad      	mov.n	a10, a6
400d1d4b:	ffbc65        	call8	400d1910 <interrupt_controller_hal_desc_level>
400d1d4e:	c198      	l32i.n	a9, a1, 48
400d1d50:	7188      	l32i.n	a8, a1, 28
400d1d52:	182987        	blt	a9, a8, 400d1d6e <esp_intr_alloc_intrstatus+0x1ea>
400d1d55:	1caa77        	bge	a10, a7, 400d1d75 <esp_intr_alloc_intrstatus+0x1f1>
400d1d58:	000486        	j	400d1d6e <esp_intr_alloc_intrstatus+0x1ea>
400d1d5b:	00          	.byte 00
400d1d5c:	00          	.byte 00
400d1d5d:	140466        	bnei	a4, -1, 400d1d75 <esp_intr_alloc_intrstatus+0x1f1>
400d1d60:	06ad      	mov.n	a10, a6
400d1d62:	ffbae5        	call8	400d1910 <interrupt_controller_hal_desc_level>
400d1d65:	0caa77        	bge	a10, a7, 400d1d75 <esp_intr_alloc_intrstatus+0x1f1>
400d1d68:	000106        	j	400d1d70 <esp_intr_alloc_intrstatus+0x1ec>
400d1d6b:	00          	.byte 00
400d1d6c:	00          	.byte 00
400d1d6d:	00          	.byte 00
400d1d6e:	7199      	s32i.n	a9, a1, 28
400d1d70:	0a7d      	mov.n	a7, a10
400d1d72:	204660        	or	a4, a6, a6
400d1d75:	661b      	addi.n	a6, a6, 1
400d1d77:	02c626        	beqi	a6, 32, 400d1d7d <esp_intr_alloc_intrstatus+0x1f9>
400d1d7a:	ffdc86        	j	400d1cf0 <esp_intr_alloc_intrstatus+0x16c>
400d1d7d:	0f0466        	bnei	a4, -1, 400d1d90 <esp_intr_alloc_intrstatus+0x20c>
400d1d80:	ffc365        	call8	400d19b8 <esp_intr_unlock>
400d1d83:	0421a2        	l32i	a10, a1, 16
400d1d86:	edaf42        	movi	a4, -19
400d1d89:	b00365        	call8	40081dc0 <k_free>
400d1d8c:	005b46        	j	400d1efd <esp_intr_alloc_intrstatus+0x379>
400d1d8f:	00          	.byte 00
400d1d90:	20b550        	or	a11, a5, a5
400d1d93:	20a440        	or	a10, a4, a4
400d1d96:	ffcfe5        	call8	400d1a94 <get_desc_for_int>
400d1d99:	206aa0        	or	a6, a10, a10
400d1d9c:	1acc      	bnez.n	a10, 400d1da1 <esp_intr_alloc_intrstatus+0x21d>
400d1d9e:	000306        	j	400d1dae <esp_intr_alloc_intrstatus+0x22a>
400d1da1:	5f6387        	bbci	a3, 8, 400d1e04 <esp_intr_alloc_intrstatus+0x280>
400d1da4:	18a0a2        	movi	a10, 24
400d1da7:	ffbc65        	call8	400d196c <k_malloc>
400d1daa:	0a7d      	mov.n	a7, a10
400d1dac:	aacc      	bnez.n	a10, 400d1dba <esp_intr_alloc_intrstatus+0x236>
400d1dae:	ffc0a5        	call8	400d19b8 <esp_intr_unlock>
400d1db1:	41a8      	l32i.n	a10, a1, 16
400d1db3:	b000e5        	call8	40081dc0 <k_free>
400d1db6:	004486        	j	400d1ecc <esp_intr_alloc_intrstatus+0x348>
400d1db9:	00          	.byte 00
400d1dba:	8c1c      	movi.n	a12, 24
400d1dbc:	0b0c      	movi.n	a11, 0
400d1dbe:	b0da65        	call8	40082b64 <memset>
400d1dc1:	8188      	l32i.n	a8, a1, 32
400d1dc3:	0017a2        	l16ui	a10, a7, 0
400d1dc6:	1789      	s32i.n	a8, a7, 4
400d1dc8:	9188      	l32i.n	a8, a1, 36
400d1dca:	00aeb2        	movi	a11, 0xfffffe00
400d1dcd:	2789      	s32i.n	a8, a7, 8
400d1dcf:	5188      	l32i.n	a8, a1, 20
400d1dd1:	10aab0        	and	a10, a10, a11
400d1dd4:	3789      	s32i.n	a8, a7, 12
400d1dd6:	a188      	l32i.n	a8, a1, 40
400d1dd8:	f917b1        	l32r	a11, 400d0234 <_image_irom_vaddr+0x214> (40080614 <shared_intr_isr>)
400d1ddb:	4789      	s32i.n	a8, a7, 16
400d1ddd:	1698      	l32i.n	a9, a6, 4
400d1ddf:	06cd      	mov.n	a12, a6
400d1de1:	5799      	s32i.n	a9, a7, 20
400d1de3:	749020        	extui	a9, a2, 0, 8
400d1de6:	999a      	add.n	a9, a9, a9
400d1de8:	2099a0        	or	a9, a9, a10
400d1deb:	005792        	s16i	a9, a7, 0
400d1dee:	1679      	s32i.n	a7, a6, 4
400d1df0:	001672        	l16ui	a7, a6, 0
400d1df3:	490c      	movi.n	a9, 4
400d1df5:	207790        	or	a7, a7, a9
400d1df8:	005672        	s16i	a7, a6, 0
400d1dfb:	04ad      	mov.n	a10, a4
400d1dfd:	ffd265        	call8	400d1b24 <set_interrupt_handler>
400d1e00:	000e46        	j	400d1e3d <esp_intr_alloc_intrstatus+0x2b9>
400d1e03:	00          	.byte 00
400d1e04:	08a072        	movi	a7, 8
400d1e07:	052182        	l32i	a8, a1, 20
400d1e0a:	005a72        	s16i	a7, a10, 0
400d1e0d:	008816        	beqz	a8, 400d1e19 <esp_intr_alloc_intrstatus+0x295>
400d1e10:	a1c8      	l32i.n	a12, a1, 40
400d1e12:	08bd      	mov.n	a11, a8
400d1e14:	04ad      	mov.n	a10, a4
400d1e16:	ffd0e5        	call8	400d1b24 <set_interrupt_handler>
400d1e19:	0d6397        	bbci	a3, 9, 400d1e2a <esp_intr_alloc_intrstatus+0x2a6>
400d1e1c:	1a0c      	movi.n	a10, 1
400d1e1e:	401400        	ssl	a4
400d1e21:	a1aa00        	sll	a10, a10
400d1e24:	f90781        	l32r	a8, 400d0240 <_image_irom_vaddr+0x220> (4000c1ec <xthal_set_intclear>)
400d1e27:	0008e0        	callx8	a8
400d1e2a:	0678      	l32i.n	a7, a6, 0
400d1e2c:	f903a1        	l32r	a10, 400d0238 <_image_irom_vaddr+0x218> (c03fffff <_rtc_bss_end+0x703fffff>)
400d1e2f:	749020        	extui	a9, a2, 0, 8
400d1e32:	0199a0        	slli	a9, a9, 22
400d1e35:	1077a0        	and	a7, a7, a10
400d1e38:	207790        	or	a7, a7, a9
400d1e3b:	0679      	s32i.n	a7, a6, 0
400d1e3d:	f8ffa1        	l32r	a10, 400d023c <_image_irom_vaddr+0x21c> (3ffb0450 <non_iram_int_mask>)
400d1e40:	1b0c      	movi.n	a11, 1
400d1e42:	a075a0        	addx4	a7, a5, a10
400d1e45:	009692        	l16si	a9, a6, 0
400d1e48:	0778      	l32i.n	a7, a7, 0
400d1e4a:	401400        	ssl	a4
400d1e4d:	a1bb00        	sll	a11, a11
400d1e50:	11c5e0        	slli	a12, a5, 2
400d1e53:	0f63a7        	bbci	a3, 10, 400d1e66 <esp_intr_alloc_intrstatus+0x2e2>
400d1e56:	2d0c      	movi.n	a13, 2
400d1e58:	2099d0        	or	a9, a9, a13
400d1e5b:	fd7c      	movi.n	a13, -1
400d1e5d:	30bdb0        	xor	a11, a13, a11
400d1e60:	107b70        	and	a7, a11, a7
400d1e63:	0001c6        	j	400d1e6e <esp_intr_alloc_intrstatus+0x2ea>
400d1e66:	dd7c      	movi.n	a13, -3
400d1e68:	1099d0        	and	a9, a9, a13
400d1e6b:	207b70        	or	a7, a11, a7
400d1e6e:	aaca      	add.n	a10, a10, a12
400d1e70:	005692        	s16i	a9, a6, 0
400d1e73:	0a79      	s32i.n	a7, a10, 0
400d1e75:	00b296        	bltz	a2, 400d1e84 <esp_intr_alloc_intrstatus+0x300>
400d1e78:	04cd      	mov.n	a12, a4
400d1e7a:	02bd      	mov.n	a11, a2
400d1e7c:	05ad      	mov.n	a10, a5
400d1e7e:	f8f181        	l32r	a8, 400d0244 <_image_irom_vaddr+0x224> (4000681c <intr_matrix_set>)
400d1e81:	0008e0        	callx8	a8
400d1e84:	042122        	l32i	a2, a1, 16
400d1e87:	042152        	l32i	a5, a1, 16
400d1e8a:	006262        	s32i	a6, a2, 0
400d1e8d:	1628      	l32i.n	a2, a6, 4
400d1e8f:	1529      	s32i.n	a2, a5, 4
400d1e91:	03e450        	rsr.intenable	a5
400d1e94:	120c      	movi.n	a2, 1
400d1e96:	401400        	ssl	a4
400d1e99:	a12200        	sll	a2, a2
400d1e9c:	202250        	or	a2, a2, a5
400d1e9f:	13e420        	wsr.intenable	a2
400d1ea2:	002010        	rsync
400d1ea5:	0463b7        	bbci	a3, 11, 400d1ead <esp_intr_alloc_intrstatus+0x329>
400d1ea8:	41a8      	l32i.n	a10, a1, 16
400d1eaa:	ae79e5        	call8	40080648 <esp_intr_disable>
400d1ead:	ffb0a5        	call8	400d19b8 <esp_intr_unlock>
400d1eb0:	182162        	l32i	a6, a1, 96
400d1eb3:	00a616        	beqz	a6, 400d1ec1 <esp_intr_alloc_intrstatus+0x33d>
400d1eb6:	042182        	l32i	a8, a1, 16
400d1eb9:	0689      	s32i.n	a8, a6, 0
400d1ebb:	00a042        	movi	a4, 0
400d1ebe:	000ec6        	j	400d1efd <esp_intr_alloc_intrstatus+0x379>
400d1ec1:	41a8      	l32i.n	a10, a1, 16
400d1ec3:	afefe5        	call8	40081dc0 <k_free>
400d1ec6:	fffc46        	j	400d1ebb <esp_intr_alloc_intrstatus+0x337>
400d1ec9:	00          	.byte 00
400d1eca:	00          	.byte 00
400d1ecb:	00          	.byte 00
400d1ecc:	447c      	movi.n	a4, -12
400d1ece:	000ac6        	j	400d1efd <esp_intr_alloc_intrstatus+0x379>
400d1ed1:	a46c      	movi.n	a4, -22
400d1ed3:	000986        	j	400d1efd <esp_intr_alloc_intrstatus+0x379>
400d1ed6:	020426        	beqi	a4, -1, 400d1edc <esp_intr_alloc_intrstatus+0x358>
400d1ed9:	ff7586        	j	400d1cb3 <esp_intr_alloc_intrstatus+0x12f>
400d1edc:	f86861        	l32r	a6, 400d007c <_image_irom_vaddr+0x5c> (7fffffff <_rtc_bss_end+0x2fffffff>)
400d1edf:	00a192        	movi	a9, 0x100
400d1ee2:	7169      	s32i.n	a6, a1, 28
400d1ee4:	086d      	mov.n	a6, a8
400d1ee6:	6188      	l32i.n	a8, a1, 24
400d1ee8:	970c      	movi.n	a7, 9
400d1eea:	109890        	and	a9, a8, a9
400d1eed:	b199      	s32i.n	a9, a1, 44
400d1eef:	ff7f46        	j	400d1cf0 <esp_intr_alloc_intrstatus+0x16c>
400d1ef2:	00          	.byte 00
400d1ef3:	00          	.byte 00
400d1ef4:	020426        	beqi	a4, -1, 400d1efa <esp_intr_alloc_intrstatus+0x376>
400d1ef7:	ff6546        	j	400d1c90 <esp_intr_alloc_intrstatus+0x10c>
400d1efa:	ff66c6        	j	400d1c99 <esp_intr_alloc_intrstatus+0x115>
400d1efd:	042d      	mov.n	a2, a4
400d1eff:	f01d      	retw.n
400d1f01:	000000        	ill

400d1f04 <esp_intr_alloc>:
400d1f04:	006136        	entry	a1, 48
400d1f07:	0d0c      	movi.n	a13, 0
400d1f09:	0169      	s32i.n	a6, a1, 0
400d1f0b:	05fd      	mov.n	a15, a5
400d1f0d:	04ed      	mov.n	a14, a4
400d1f0f:	0dcd      	mov.n	a12, a13
400d1f11:	03bd      	mov.n	a11, a3
400d1f13:	02ad      	mov.n	a10, a2
400d1f15:	ffc6e5        	call8	400d1b84 <esp_intr_alloc_intrstatus>
400d1f18:	0a2d      	mov.n	a2, a10
400d1f1a:	f01d      	retw.n

400d1f1c <clock_control_esp32_get_status>:
400d1f1c:	004136        	entry	a1, 32
400d1f1f:	f21c      	movi.n	a2, 31
400d1f21:	173237        	bltu	a2, a3, 400d1f3c <clock_control_esp32_get_status+0x20>
400d1f24:	881c      	movi.n	a8, 24
400d1f26:	f8b021        	l32r	a2, 400d01e8 <_image_irom_vaddr+0x1c8> (3ff000cc <__device_handles_end+0xaff1d6>)
400d1f29:	273837        	bltu	a8, a3, 400d1f54 <clock_control_esp32_get_status+0x38>
400d1f2c:	eac382        	addi	a8, a3, -22
400d1f2f:	f8ac21        	l32r	a2, 400d01e0 <_image_irom_vaddr+0x1c0> (3ff000c0 <__device_handles_end+0xaff1ca>)
400d1f32:	1e28f6        	bgeui	a8, 2, 400d1f54 <clock_control_esp32_get_status+0x38>
400d1f35:	f8ac21        	l32r	a2, 400d01e8 <_image_irom_vaddr+0x1c8> (3ff000cc <__device_handles_end+0xaff1d6>)
400d1f38:	000606        	j	400d1f54 <clock_control_esp32_get_status+0x38>
400d1f3b:	00          	.byte 00
400d1f3c:	e0c382        	addi	a8, a3, -32
400d1f3f:	f8a921        	l32r	a2, 400d01e4 <_image_irom_vaddr+0x1c4> (3ff0001c <__device_handles_end+0xaff126>)
400d1f42:	0e38b6        	bltui	a8, 3, 400d1f54 <clock_control_esp32_get_status+0x38>
400d1f45:	f8a621        	l32r	a2, 400d01e0 <_image_irom_vaddr+0x1c0> (3ff000c0 <__device_handles_end+0xaff1ca>)
400d1f48:	0020c0        	memw
400d1f4b:	0228      	l32i.n	a2, a2, 0
400d1f4d:	120c      	movi.n	a2, 1
400d1f4f:	000606        	j	400d1f6b <clock_control_esp32_get_status+0x4f>
400d1f52:	00          	.byte 00
400d1f53:	00          	.byte 00
400d1f54:	f8bd81        	l32r	a8, 400d0248 <_image_irom_vaddr+0x228> (3f400890 <CSWTCH$7>)
400d1f57:	0020c0        	memw
400d1f5a:	0228      	l32i.n	a2, a2, 0
400d1f5c:	a03380        	addx4	a3, a3, a8
400d1f5f:	0338      	l32i.n	a3, a3, 0
400d1f61:	280c      	movi.n	a8, 2
400d1f63:	103230        	and	a3, a2, a3
400d1f66:	120c      	movi.n	a2, 1
400d1f68:	932830        	movnez	a2, a8, a3
400d1f6b:	f01d      	retw.n
400d1f6d:	000000        	ill

400d1f70 <clock_control_esp32_get_rate>:
400d1f70:	006136        	entry	a1, 48
400d1f73:	01ad      	mov.n	a10, a1
400d1f75:	ff0825        	call8	400d0ff8 <rtc_clk_cpu_freq_get_config>
400d1f78:	3188      	l32i.n	a8, a1, 12
400d1f7a:	020c      	movi.n	a2, 0
400d1f7c:	0489      	s32i.n	a8, a4, 0
400d1f7e:	f01d      	retw.n

400d1f80 <clock_control_esp32_off>:
400d1f80:	004136        	entry	a1, 32
400d1f83:	03ad      	mov.n	a10, a3
400d1f85:	ff8ea5        	call8	400d1870 <periph_module_disable>
400d1f88:	020c      	movi.n	a2, 0
400d1f8a:	f01d      	retw.n

400d1f8c <clock_control_esp32_on>:
400d1f8c:	004136        	entry	a1, 32
400d1f8f:	03ad      	mov.n	a10, a3
400d1f91:	ff84e5        	call8	400d17e0 <periph_module_enable>
400d1f94:	020c      	movi.n	a2, 0
400d1f96:	f01d      	retw.n

400d1f98 <clock_control_esp32_init>:
400d1f98:	008136        	entry	a1, 64
400d1f9b:	012232        	l32i	a3, a2, 4
400d1f9e:	ff2b25        	call8	400d1250 <rtc_clk_apb_freq_get>
400d1fa1:	f8aa21        	l32r	a2, 400d024c <_image_irom_vaddr+0x22c> (4c4b3ff <CONFIG_FLASH_SIZE+0x484b3ff>)
400d1fa4:	6132a7        	bltu	a2, a10, 400d2009 <clock_control_esp32_init+0x71>
400d1fa7:	f8aa21        	l32r	a2, 400d0250 <_image_irom_vaddr+0x230> (3f400040 <_image_drom_vaddr>)
400d1faa:	0248      	l32i.n	a4, a2, 0
400d1fac:	1228      	l32i.n	a2, a2, 4
400d1fae:	0149      	s32i.n	a4, a1, 0
400d1fb0:	1129      	s32i.n	a2, a1, 4
400d1fb2:	2348      	l32i.n	a4, a3, 8
400d1fb4:	f8a821        	l32r	a2, 400d0254 <_image_irom_vaddr+0x234> (3f400cfb <xtal_freq>)
400d1fb7:	224a      	add.n	a2, a2, a4
400d1fb9:	000222        	l8ui	a2, a2, 0
400d1fbc:	004122        	s8i	a2, a1, 0
400d1fbf:	1348      	l32i.n	a4, a3, 4
400d1fc1:	fedd65        	call8	400d0d98 <rtc_clk_slow_freq_get>
400d1fc4:	0a2d      	mov.n	a2, a10
400d1fc6:	fee125        	call8	400d0dd8 <rtc_clk_fast_freq_get>
400d1fc9:	180c      	movi.n	a8, 1
400d1fcb:	0188e0        	slli	a8, a8, 18
400d1fce:	01aae0        	slli	a10, a10, 18
400d1fd1:	10aa80        	and	a10, a10, a8
400d1fd4:	ffa382        	movi	a8, 0x3ff
400d1fd7:	118880        	slli	a8, a8, 8
400d1fda:	114480        	slli	a4, a4, 8
400d1fdd:	104480        	and	a4, a4, a8
400d1fe0:	20aa40        	or	a10, a10, a4
400d1fe3:	340c      	movi.n	a4, 3
400d1fe5:	0144d0        	slli	a4, a4, 19
400d1fe8:	0122d0        	slli	a2, a2, 19
400d1feb:	102240        	and	a2, a2, a4
400d1fee:	20aa20        	or	a10, a10, a2
400d1ff1:	f89941        	l32r	a4, 400d0258 <_image_irom_vaddr+0x238> (ffe000ff <_rtc_bss_end+0xafe000ff>)
400d1ff4:	0128      	l32i.n	a2, a1, 0
400d1ff6:	11b8      	l32i.n	a11, a1, 4
400d1ff8:	102240        	and	a2, a2, a4
400d1ffb:	20aa20        	or	a10, a10, a2
400d1ffe:	0061a2        	s32i	a10, a1, 0
400d2001:	ff50e5        	call8	400d1510 <rtc_clk_init>
400d2004:	000306        	j	400d2014 <clock_control_esp32_init+0x7c>
400d2007:	00          	.byte 00
400d2008:	00          	.byte 00
400d2009:	0a0c      	movi.n	a10, 0
400d200b:	f89481        	l32r	a8, 400d025c <_image_irom_vaddr+0x23c> (400081d4 <rtc_get_reset_reason>)
400d200e:	0008e0        	callx8	a8
400d2011:	92aa66        	bnei	a10, 12, 400d1fa7 <clock_control_esp32_init+0xf>
400d2014:	1a0c      	movi.n	a10, 1
400d2016:	fed925        	call8	400d0da8 <rtc_clk_fast_freq_set>
400d2019:	10c1a2        	addi	a10, a1, 16
400d201c:	fefda5        	call8	400d0ff8 <rtc_clk_cpu_freq_get_config>
400d201f:	1348      	l32i.n	a4, a3, 4
400d2021:	01bd      	mov.n	a11, a1
400d2023:	04ad      	mov.n	a10, a4
400d2025:	7158      	l32i.n	a5, a1, 28
400d2027:	fef7a5        	call8	400d0fa0 <rtc_clk_cpu_freq_mhz_to_config>
400d202a:	7aaf22        	movi	a2, -134
400d202d:	9abc      	beqz.n	a10, 400d206a <clock_control_esp32_init+0xd2>
400d202f:	0a0c      	movi.n	a10, 0
400d2031:	f86681        	l32r	a8, 400d01cc <_image_irom_vaddr+0x1ac> (40009278 <esp_rom_uart_tx_wait_idle>)
400d2034:	0008e0        	callx8	a8
400d2037:	3328      	l32i.n	a2, a3, 12
400d2039:	001296        	bltz	a2, 400d203e <clock_control_esp32_init+0xa6>
400d203c:	2129      	s32i.n	a2, a1, 8
400d203e:	0328      	l32i.n	a2, a3, 0
400d2040:	001296        	bltz	a2, 400d2045 <clock_control_esp32_init+0xad>
400d2043:	0129      	s32i.n	a2, a1, 0
400d2045:	20a110        	or	a10, a1, a1
400d2048:	ff0ea5        	call8	400d1134 <rtc_clk_cpu_freq_set_config>
400d204b:	03eaa0        	rsr.ccount	a10
400d204e:	a2ba40        	muluh	a11, a10, a4
400d2051:	82aa40        	mull	a10, a10, a4
400d2054:	20c550        	or	a12, a5, a5
400d2057:	00a0d2        	movi	a13, 0
400d205a:	f7fd81        	l32r	a8, 400d0050 <_image_irom_vaddr+0x30> (4000cff8 <__udivdi3>)
400d205d:	0008e0        	callx8	a8
400d2060:	13eaa0        	wsr.ccount	a10
400d2063:	aa1c      	movi.n	a10, 26
400d2065:	ff77a5        	call8	400d17e0 <periph_module_enable>
400d2068:	020c      	movi.n	a2, 0
400d206a:	f01d      	retw.n

400d206c <uart_console_init>:
400d206c:	004136        	entry	a1, 32
400d206f:	f87ca1        	l32r	a10, 400d0260 <_image_irom_vaddr+0x240> (3f400ea0 <__device_dts_ord_53>)
400d2072:	edaf22        	movi	a2, -19
400d2075:	afd7a5        	call8	40081df0 <z_device_is_ready>
400d2078:	00ea16        	beqz	a10, 400d208a <uart_console_init+0x1e>
400d207b:	f87a21        	l32r	a2, 400d0264 <_image_irom_vaddr+0x244> (40082b08 <console_out>)
400d207e:	02ad      	mov.n	a10, a2
400d2080:	ff91a5        	call8	400d199c <__stdout_hook_install>
400d2083:	02ad      	mov.n	a10, a2
400d2085:	fe3465        	call8	400d03cc <__printk_hook_install>
400d2088:	020c      	movi.n	a2, 0
400d208a:	f01d      	retw.n

400d208c <rtcio_ll_set_drive_capability>:
400d208c:	004136        	entry	a1, 32
400d208f:	f87681        	l32r	a8, 400d0268 <_image_irom_vaddr+0x248> (3f4000e8 <rtc_io_desc>)
400d2092:	f02220        	subx8	a2, a2, a2
400d2095:	b02280        	addx8	a2, a2, a8
400d2098:	b298      	l32i.n	a9, a2, 44
400d209a:	69ac      	beqz.n	a9, 400d20c4 <rtcio_ll_set_drive_capability+0x38>
400d209c:	02a8      	l32i.n	a10, a2, 0
400d209e:	c228      	l32i.n	a2, a2, 48
400d20a0:	0020c0        	memw
400d20a3:	0ab8      	l32i.n	a11, a10, 0
400d20a5:	401200        	ssl	a2
400d20a8:	a1c900        	sll	a12, a9
400d20ab:	f87c      	movi.n	a8, -1
400d20ad:	3088c0        	xor	a8, a8, a12
400d20b0:	109930        	and	a9, a9, a3
400d20b3:	1088b0        	and	a8, a8, a11
400d20b6:	401200        	ssl	a2
400d20b9:	a19900        	sll	a9, a9
400d20bc:	208890        	or	a8, a8, a9
400d20bf:	0020c0        	memw
400d20c2:	0a89      	s32i.n	a8, a10, 0
400d20c4:	f01d      	retw.n
	...

400d20c8 <gpio_esp32_pin_interrupt_configure>:
400d20c8:	004136        	entry	a1, 32
400d20cb:	190c      	movi.n	a9, 1
400d20cd:	0199b0        	slli	a9, a9, 21
400d20d0:	743030        	extui	a3, a3, 0, 8
400d20d3:	180c      	movi.n	a8, 1
400d20d5:	391497        	beq	a4, a9, 400d2112 <gpio_esp32_pin_interrupt_configure+0x4a>
400d20d8:	0198a0        	slli	a9, a8, 22
400d20db:	159497        	bne	a4, a9, 400d20f4 <gpio_esp32_pin_interrupt_configure+0x2c>
400d20de:	014870        	slli	a4, a8, 25
400d20e1:	331547        	beq	a5, a4, 400d2118 <gpio_esp32_pin_interrupt_configure+0x50>
400d20e4:	018860        	slli	a8, a8, 26
400d20e7:	a96c      	movi.n	a9, -22
400d20e9:	021587        	beq	a5, a8, 400d20ef <gpio_esp32_pin_interrupt_configure+0x27>
400d20ec:	002b06        	j	400d219c <gpio_esp32_pin_interrupt_configure+0xd4>
400d20ef:	000a86        	j	400d211d <gpio_esp32_pin_interrupt_configure+0x55>
400d20f2:	00          	.byte 00
400d20f3:	00          	.byte 00
400d20f4:	014860        	slli	a4, a8, 26
400d20f7:	271547        	beq	a5, a4, 400d2122 <gpio_esp32_pin_interrupt_configure+0x5a>
400d20fa:	390c      	movi.n	a9, 3
400d20fc:	019970        	slli	a9, a9, 25
400d20ff:	251597        	beq	a5, a9, 400d2128 <gpio_esp32_pin_interrupt_configure+0x60>
400d2102:	018870        	slli	a8, a8, 25
400d2105:	a96c      	movi.n	a9, -22
400d2107:	021587        	beq	a5, a8, 400d210d <gpio_esp32_pin_interrupt_configure+0x45>
400d210a:	002386        	j	400d219c <gpio_esp32_pin_interrupt_configure+0xd4>
400d210d:	290c      	movi.n	a9, 2
400d210f:	0005c6        	j	400d212a <gpio_esp32_pin_interrupt_configure+0x62>
400d2112:	090c      	movi.n	a9, 0
400d2114:	000486        	j	400d212a <gpio_esp32_pin_interrupt_configure+0x62>
400d2117:	00          	.byte 00
400d2118:	490c      	movi.n	a9, 4
400d211a:	000306        	j	400d212a <gpio_esp32_pin_interrupt_configure+0x62>
400d211d:	590c      	movi.n	a9, 5
400d211f:	0001c6        	j	400d212a <gpio_esp32_pin_interrupt_configure+0x62>
400d2122:	089d      	mov.n	a9, a8
400d2124:	000086        	j	400d212a <gpio_esp32_pin_interrupt_configure+0x62>
400d2127:	00          	.byte 00
400d2128:	390c      	movi.n	a9, 3
400d212a:	12d8      	l32i.n	a13, a2, 4
400d212c:	3d58      	l32i.n	a5, a13, 12
400d212e:	0063b0        	rsil	a11, 3
400d2131:	f41c      	movi.n	a4, 31
400d2133:	1dc8      	l32i.n	a12, a13, 4
400d2135:	1e0c      	movi.n	a14, 1
400d2137:	01b437        	bgeu	a4, a3, 400d213c <gpio_esp32_pin_interrupt_configure+0x74>
400d213a:	0e0c      	movi.n	a14, 0
400d213c:	550b      	addi.n	a5, a5, -1
400d213e:	1a0c      	movi.n	a10, 1
400d2140:	080c      	movi.n	a8, 0
400d2142:	838a50        	moveqz	a8, a10, a5
400d2145:	1088e0        	and	a8, a8, a14
400d2148:	1188b0        	slli	a8, a8, 5
400d214b:	883a      	add.n	a8, a8, a3
400d214d:	20c882        	addi	a8, a8, 32
400d2150:	1138e0        	slli	a3, a8, 2
400d2153:	a088c0        	addx4	a8, a8, a12
400d2156:	0020c0        	memw
400d2159:	28c8      	l32i.n	a12, a8, 8
400d215b:	7fac42        	movi	a4, 0xfffffc7f
400d215e:	10cc40        	and	a12, a12, a4
400d2161:	119990        	slli	a9, a9, 7
400d2164:	209c90        	or	a9, a12, a9
400d2167:	0020c0        	memw
400d216a:	2899      	s32i.n	a9, a8, 8
400d216c:	1d88      	l32i.n	a8, a13, 4
400d216e:	03f540        	rsr.misc1	a4
400d2171:	883a      	add.n	a8, a8, a3
400d2173:	0020c0        	memw
400d2176:	2898      	l32i.n	a9, a8, 8
400d2178:	f83d31        	l32r	a3, 400d026c <_image_irom_vaddr+0x24c> (fffc1fff <_rtc_bss_end+0xaffc1fff>)
400d217b:	140442        	l8ui	a4, a4, 20
400d217e:	109930        	and	a9, a9, a3
400d2181:	44cc      	bnez.n	a4, 400d2189 <gpio_esp32_pin_interrupt_configure+0xc1>
400d2183:	11aa10        	slli	a10, a10, 15
400d2186:	000086        	j	400d218c <gpio_esp32_pin_interrupt_configure+0xc4>
400d2189:	11aa30        	slli	a10, a10, 13
400d218c:	20a9a0        	or	a10, a9, a10
400d218f:	0020c0        	memw
400d2192:	28a9      	s32i.n	a10, a8, 8
400d2194:	13e6b0        	wsr.ps	a11
400d2197:	002010        	rsync
400d219a:	090c      	movi.n	a9, 0
400d219c:	092d      	mov.n	a2, a9
400d219e:	f01d      	retw.n

400d21a0 <gpio_esp32_init>:
400d21a0:	004136        	entry	a1, 32
400d21a3:	f83331        	l32r	a3, 400d0270 <_image_irom_vaddr+0x250> (3ffb05cb <isr_connected$0>)
400d21a6:	02dd      	mov.n	a13, a2
400d21a8:	0003b2        	l8ui	a11, a3, 0
400d21ab:	ebcc      	bnez.n	a11, 400d21bd <gpio_esp32_init+0x1d>
400d21ad:	f831c1        	l32r	a12, 400d0274 <_image_irom_vaddr+0x254> (400806f8 <gpio_esp32_isr>)
400d21b0:	0bed      	mov.n	a14, a11
400d21b2:	16a0a2        	movi	a10, 22
400d21b5:	ffd4e5        	call8	400d1f04 <esp_intr_alloc>
400d21b8:	180c      	movi.n	a8, 1
400d21ba:	004382        	s8i	a8, a3, 0
400d21bd:	020c      	movi.n	a2, 0
400d21bf:	f01d      	retw.n
400d21c1:	000000        	ill

400d21c4 <gpio_esp32_config>:
400d21c4:	006136        	entry	a1, 48
400d21c7:	74b030        	extui	a11, a3, 0, 8
400d21ca:	1238      	l32i.n	a3, a2, 4
400d21cc:	070c      	movi.n	a7, 0
400d21ce:	3368      	l32i.n	a6, a3, 12
400d21d0:	120c      	movi.n	a2, 1
400d21d2:	660b      	addi.n	a6, a6, -1
400d21d4:	075d      	mov.n	a5, a7
400d21d6:	835260        	moveqz	a5, a2, a6
400d21d9:	f61c      	movi.n	a6, 31
400d21db:	02b6b7        	bgeu	a6, a11, 400d21e1 <gpio_esp32_config+0x1d>
400d21de:	202770        	or	a2, a7, a7
400d21e1:	105520        	and	a5, a5, a2
400d21e4:	f82561        	l32r	a6, 400d0278 <_image_irom_vaddr+0x258> (eefffff <CONFIG_SYS_CLOCK_HW_CYCLES_PER_SEC+0xa1e3ff>)
400d21e7:	1155b0        	slli	a5, a5, 5
400d21ea:	55ba      	add.n	a5, a5, a11
400d21ec:	a26c      	movi.n	a2, -22
400d21ee:	02d6b7        	bbs	a6, a11, 400d21f4 <gpio_esp32_config+0x30>
400d21f1:	00c3c6        	j	400d2504 <gpio_esp32_config+0x340>
400d21f4:	006360        	rsil	a6, 3
400d21f7:	722c      	movi.n	a2, 39
400d21f9:	02b257        	bgeu	a2, a5, 400d21ff <gpio_esp32_config+0x3b>
400d21fc:	005c86        	j	400d2372 <gpio_esp32_config+0x1ae>
400d21ff:	f81f21        	l32r	a2, 400d027c <_image_irom_vaddr+0x25c> (3f4004d8 <rtc_io_num_map>)
400d2202:	090c      	movi.n	a9, 0
400d2204:	a02520        	addx4	a2, a5, a2
400d2207:	02a8      	l32i.n	a10, a2, 0
400d2209:	1175e0        	slli	a7, a5, 2
400d220c:	202a97        	blt	a10, a9, 400d2230 <gpio_esp32_config+0x6c>
400d220f:	f81681        	l32r	a8, 400d0268 <_image_irom_vaddr+0x248> (3f4000e8 <rtc_io_desc>)
400d2212:	f02aa0        	subx8	a2, a10, a10
400d2215:	b02280        	addx8	a2, a2, a8
400d2218:	0288      	l32i.n	a8, a2, 0
400d221a:	12c8      	l32i.n	a12, a2, 4
400d221c:	0020c0        	memw
400d221f:	0898      	l32i.n	a9, a8, 0
400d2221:	f27c      	movi.n	a2, -1
400d2223:	3022c0        	xor	a2, a2, a12
400d2226:	102290        	and	a2, a2, a9
400d2229:	0020c0        	memw
400d222c:	0829      	s32i.n	a2, a8, 0
400d222e:	190c      	movi.n	a9, 1
400d2230:	f81421        	l32r	a2, 400d0280 <_image_irom_vaddr+0x260> (3f400048 <GPIO_PIN_MUX_REG>)
400d2233:	f7ded1        	l32r	a13, 400d01ac <_image_irom_vaddr+0x18c> (ffff8fff <_rtc_bss_end+0xafff8fff>)
400d2236:	827a      	add.n	a8, a2, a7
400d2238:	0888      	l32i.n	a8, a8, 0
400d223a:	0020c0        	memw
400d223d:	08c8      	l32i.n	a12, a8, 0
400d223f:	10ccd0        	and	a12, a12, a13
400d2242:	1d0c      	movi.n	a13, 1
400d2244:	11dd30        	slli	a13, a13, 13
400d2247:	20ccd0        	or	a12, a12, a13
400d224a:	0020c0        	memw
400d224d:	08c9      	s32i.n	a12, a8, 0
400d224f:	336447        	bbci	a4, 4, 400d2286 <gpio_esp32_config+0xc2>
400d2252:	a9cc      	bnez.n	a9, 400d2260 <gpio_esp32_config+0x9c>
400d2254:	0020c0        	memw
400d2257:	08c8      	l32i.n	a12, a8, 0
400d2259:	00a1d2        	movi	a13, 0x100
400d225c:	0006c6        	j	400d227b <gpio_esp32_config+0xb7>
400d225f:	00          	.byte 00
400d2260:	f802c1        	l32r	a12, 400d0268 <_image_irom_vaddr+0x248> (3f4000e8 <rtc_io_desc>)
400d2263:	f08aa0        	subx8	a8, a10, a10
400d2266:	b088c0        	addx8	a8, a8, a12
400d2269:	48c8      	l32i.n	a12, a8, 16
400d226b:	5ccc      	bnez.n	a12, 400d2274 <gpio_esp32_config+0xb0>
400d226d:	7aaf22        	movi	a2, -134
400d2270:	00a286        	j	400d24fe <gpio_esp32_config+0x33a>
400d2273:	00          	.byte 00
400d2274:	0888      	l32i.n	a8, a8, 0
400d2276:	0020c0        	memw
400d2279:	08d8      	l32i.n	a13, a8, 0
400d227b:	20ccd0        	or	a12, a12, a13
400d227e:	0020c0        	memw
400d2281:	08c9      	s32i.n	a12, a8, 0
400d2283:	000c86        	j	400d22b9 <gpio_esp32_config+0xf5>
400d2286:	e9cc      	bnez.n	a9, 400d2298 <gpio_esp32_config+0xd4>
400d2288:	0020c0        	memw
400d228b:	08c8      	l32i.n	a12, a8, 0
400d228d:	ffaed2        	movi	a13, 0xfffffeff
400d2290:	10ccd0        	and	a12, a12, a13
400d2293:	fff9c6        	j	400d227e <gpio_esp32_config+0xba>
400d2296:	00          	.byte 00
400d2297:	00          	.byte 00
400d2298:	f7f4c1        	l32r	a12, 400d0268 <_image_irom_vaddr+0x248> (3f4000e8 <rtc_io_desc>)
400d229b:	f08550        	subx8	a8, a5, a5
400d229e:	b088c0        	addx8	a8, a8, a12
400d22a1:	48d8      	l32i.n	a13, a8, 16
400d22a3:	2d9c      	beqz.n	a13, 400d22b9 <gpio_esp32_config+0xf5>
400d22a5:	08c8      	l32i.n	a12, a8, 0
400d22a7:	f87c      	movi.n	a8, -1
400d22a9:	0020c0        	memw
400d22ac:	0ce8      	l32i.n	a14, a12, 0
400d22ae:	3088d0        	xor	a8, a8, a13
400d22b1:	1088e0        	and	a8, a8, a14
400d22b4:	0020c0        	memw
400d22b7:	0c89      	s32i.n	a8, a12, 0
400d22b9:	176417        	bbci	a4, 1, 400d22d4 <gpio_esp32_config+0x110>
400d22bc:	4d0c      	movi.n	a13, 4
400d22be:	ab04d7        	bnone	a4, a13, 400d226d <gpio_esp32_config+0xa9>
400d22c1:	13c8      	l32i.n	a12, a3, 4
400d22c3:	20c582        	addi	a8, a5, 32
400d22c6:	a088c0        	addx4	a8, a8, a12
400d22c9:	0020c0        	memw
400d22cc:	28c8      	l32i.n	a12, a8, 8
400d22ce:	20ccd0        	or	a12, a12, a13
400d22d1:	000446        	j	400d22e6 <gpio_esp32_config+0x122>
400d22d4:	13c8      	l32i.n	a12, a3, 4
400d22d6:	20c582        	addi	a8, a5, 32
400d22d9:	a088c0        	addx4	a8, a8, a12
400d22dc:	0020c0        	memw
400d22df:	28c8      	l32i.n	a12, a8, 8
400d22e1:	bd7c      	movi.n	a13, -5
400d22e3:	10ccd0        	and	a12, a12, a13
400d22e6:	0020c0        	memw
400d22e9:	28c9      	s32i.n	a12, a8, 8
400d22eb:	356457        	bbci	a4, 5, 400d2324 <gpio_esp32_config+0x160>
400d22ee:	29dc      	bnez.n	a9, 400d2304 <gpio_esp32_config+0x140>
400d22f0:	827a      	add.n	a8, a2, a7
400d22f2:	08c8      	l32i.n	a12, a8, 0
400d22f4:	80a0d2        	movi	a13, 128
400d22f7:	0020c0        	memw
400d22fa:	0c88      	l32i.n	a8, a12, 0
400d22fc:	2088d0        	or	a8, a8, a13
400d22ff:	001446        	j	400d2354 <gpio_esp32_config+0x190>
400d2302:	00          	.byte 00
400d2303:	00          	.byte 00
400d2304:	f7d9c1        	l32r	a12, 400d0268 <_image_irom_vaddr+0x248> (3f4000e8 <rtc_io_desc>)
400d2307:	f08aa0        	subx8	a8, a10, a10
400d230a:	b088c0        	addx8	a8, a8, a12
400d230d:	58c8      	l32i.n	a12, a8, 20
400d230f:	f5ac16        	beqz	a12, 400d226d <gpio_esp32_config+0xa9>
400d2312:	0888      	l32i.n	a8, a8, 0
400d2314:	0020c0        	memw
400d2317:	08d8      	l32i.n	a13, a8, 0
400d2319:	20ccd0        	or	a12, a12, a13
400d231c:	0020c0        	memw
400d231f:	08c9      	s32i.n	a12, a8, 0
400d2321:	000d06        	j	400d2359 <gpio_esp32_config+0x195>
400d2324:	09dc      	bnez.n	a9, 400d2338 <gpio_esp32_config+0x174>
400d2326:	827a      	add.n	a8, a2, a7
400d2328:	08c8      	l32i.n	a12, a8, 0
400d232a:	7fafd2        	movi	a13, -129
400d232d:	0020c0        	memw
400d2330:	0c88      	l32i.n	a8, a12, 0
400d2332:	1088d0        	and	a8, a8, a13
400d2335:	0006c6        	j	400d2354 <gpio_esp32_config+0x190>
400d2338:	f7ccc1        	l32r	a12, 400d0268 <_image_irom_vaddr+0x248> (3f4000e8 <rtc_io_desc>)
400d233b:	f08550        	subx8	a8, a5, a5
400d233e:	b088c0        	addx8	a8, a8, a12
400d2341:	58d8      	l32i.n	a13, a8, 20
400d2343:	2d9c      	beqz.n	a13, 400d2359 <gpio_esp32_config+0x195>
400d2345:	08c8      	l32i.n	a12, a8, 0
400d2347:	f87c      	movi.n	a8, -1
400d2349:	0020c0        	memw
400d234c:	0ce8      	l32i.n	a14, a12, 0
400d234e:	3088d0        	xor	a8, a8, a13
400d2351:	1088e0        	and	a8, a8, a14
400d2354:	0020c0        	memw
400d2357:	0c89      	s32i.n	a8, a12, 0
400d2359:	180c      	movi.n	a8, 1
400d235b:	02f417        	bbsi	a4, 17, 400d2361 <gpio_esp32_config+0x19d>
400d235e:	004c06        	j	400d2492 <gpio_esp32_config+0x2ce>
400d2361:	f7c581        	l32r	a8, 400d0278 <_image_irom_vaddr+0x258> (eefffff <CONFIG_SYS_CLOCK_HW_CYCLES_PER_SEC+0xa1e3ff>)
400d2364:	0a58b7        	bbc	a8, a11, 400d2372 <gpio_esp32_config+0x1ae>
400d2367:	00a682        	movi	a8, 0x600
400d236a:	10b480        	and	a11, a4, a8
400d236d:	7b8c      	beqz.n	a11, 400d2378 <gpio_esp32_config+0x1b4>
400d236f:	2b1b87        	beq	a11, a8, 400d239e <gpio_esp32_config+0x1da>
400d2372:	a26c      	movi.n	a2, -22
400d2374:	006186        	j	400d24fe <gpio_esp32_config+0x33a>
400d2377:	00          	.byte 00
400d2378:	d9dc      	bnez.n	a9, 400d2399 <gpio_esp32_config+0x1d5>
400d237a:	827a      	add.n	a8, a2, a7
400d237c:	08a8      	l32i.n	a10, a8, 0
400d237e:	f7c191        	l32r	a9, 400d0284 <_image_irom_vaddr+0x264> (fffff3ff <_rtc_bss_end+0xaffff3ff>)
400d2381:	0020c0        	memw
400d2384:	0a88      	l32i.n	a8, a10, 0
400d2386:	108890        	and	a8, a8, a9
400d2389:	390c      	movi.n	a9, 3
400d238b:	119960        	slli	a9, a9, 10
400d238e:	208890        	or	a8, a8, a9
400d2391:	0020c0        	memw
400d2394:	0a89      	s32i.n	a8, a10, 0
400d2396:	000906        	j	400d23be <gpio_esp32_config+0x1fa>
400d2399:	3b0c      	movi.n	a11, 3
400d239b:	000706        	j	400d23bb <gpio_esp32_config+0x1f7>
400d239e:	69dc      	bnez.n	a9, 400d23b8 <gpio_esp32_config+0x1f4>
400d23a0:	827a      	add.n	a8, a2, a7
400d23a2:	0898      	l32i.n	a9, a8, 0
400d23a4:	f7b8a1        	l32r	a10, 400d0284 <_image_irom_vaddr+0x264> (fffff3ff <_rtc_bss_end+0xaffff3ff>)
400d23a7:	0020c0        	memw
400d23aa:	0988      	l32i.n	a8, a9, 0
400d23ac:	1088a0        	and	a8, a8, a10
400d23af:	0020c0        	memw
400d23b2:	0989      	s32i.n	a8, a9, 0
400d23b4:	000186        	j	400d23be <gpio_esp32_config+0x1fa>
400d23b7:	00          	.byte 00
400d23b8:	00a0b2        	movi	a11, 0
400d23bb:	ffcd25        	call8	400d208c <rtcio_ll_set_drive_capability>
400d23be:	1fa082        	movi	a8, 31
400d23c1:	f7b191        	l32r	a9, 400d0288 <_image_irom_vaddr+0x268> (3ff44000 <GPIO>)
400d23c4:	103857        	bltu	a8, a5, 400d23d8 <gpio_esp32_config+0x214>
400d23c7:	01a082        	movi	a8, 1
400d23ca:	401500        	ssl	a5
400d23cd:	a18800        	sll	a8, a8
400d23d0:	0020c0        	memw
400d23d3:	9989      	s32i.n	a8, a9, 36
400d23d5:	000906        	j	400d23fd <gpio_esp32_config+0x239>
400d23d8:	0020c0        	memw
400d23db:	c988      	l32i.n	a8, a9, 48
400d23dd:	0020c0        	memw
400d23e0:	3189      	s32i.n	a8, a1, 12
400d23e2:	180c      	movi.n	a8, 1
400d23e4:	401500        	ssl	a5
400d23e7:	a18800        	sll	a8, a8
400d23ea:	748080        	extui	a8, a8, 0, 8
400d23ed:	0020c0        	memw
400d23f0:	0c4182        	s8i	a8, a1, 12
400d23f3:	0020c0        	memw
400d23f6:	3188      	l32i.n	a8, a1, 12
400d23f8:	0020c0        	memw
400d23fb:	c989      	s32i.n	a8, a9, 48
400d23fd:	0d0c      	movi.n	a13, 0
400d23ff:	0dcd      	mov.n	a12, a13
400d2401:	00a1b2        	movi	a11, 0x100
400d2404:	05ad      	mov.n	a10, a5
400d2406:	f7a281        	l32r	a8, 400d0290 <_image_irom_vaddr+0x270> (40009f0c <esp_rom_gpio_matrix_out>)
400d2409:	0008e0        	callx8	a8
400d240c:	180c      	movi.n	a8, 1
400d240e:	3e7437        	bbci	a4, 19, 400d2450 <gpio_esp32_config+0x28c>
400d2411:	f91c      	movi.n	a9, 31
400d2413:	1338      	l32i.n	a3, a3, 4
400d2415:	0f3957        	bltu	a9, a5, 400d2428 <gpio_esp32_config+0x264>
400d2418:	401500        	ssl	a5
400d241b:	a18800        	sll	a8, a8
400d241e:	0020c0        	memw
400d2421:	2389      	s32i.n	a8, a3, 8
400d2423:	002d46        	j	400d24dc <gpio_esp32_config+0x318>
400d2426:	00          	.byte 00
400d2427:	00          	.byte 00
400d2428:	0020c0        	memw
400d242b:	5398      	l32i.n	a9, a3, 20
400d242d:	401500        	ssl	a5
400d2430:	a18800        	sll	a8, a8
400d2433:	0020c0        	memw
400d2436:	2199      	s32i.n	a9, a1, 8
400d2438:	748080        	extui	a8, a8, 0, 8
400d243b:	0020c0        	memw
400d243e:	084182        	s8i	a8, a1, 8
400d2441:	0020c0        	memw
400d2444:	2158      	l32i.n	a5, a1, 8
400d2446:	0020c0        	memw
400d2449:	5359      	s32i.n	a5, a3, 20
400d244b:	002346        	j	400d24dc <gpio_esp32_config+0x318>
400d244e:	00          	.byte 00
400d244f:	00          	.byte 00
400d2450:	02f427        	bbsi	a4, 18, 400d2456 <gpio_esp32_config+0x292>
400d2453:	002146        	j	400d24dc <gpio_esp32_config+0x318>
400d2456:	f91c      	movi.n	a9, 31
400d2458:	1338      	l32i.n	a3, a3, 4
400d245a:	0e3957        	bltu	a9, a5, 400d246c <gpio_esp32_config+0x2a8>
400d245d:	401500        	ssl	a5
400d2460:	a18800        	sll	a8, a8
400d2463:	0020c0        	memw
400d2466:	3389      	s32i.n	a8, a3, 12
400d2468:	001c06        	j	400d24dc <gpio_esp32_config+0x318>
400d246b:	00          	.byte 00
400d246c:	0020c0        	memw
400d246f:	6398      	l32i.n	a9, a3, 24
400d2471:	401500        	ssl	a5
400d2474:	a18800        	sll	a8, a8
400d2477:	0020c0        	memw
400d247a:	1199      	s32i.n	a9, a1, 4
400d247c:	748080        	extui	a8, a8, 0, 8
400d247f:	0020c0        	memw
400d2482:	044182        	s8i	a8, a1, 4
400d2485:	0020c0        	memw
400d2488:	1158      	l32i.n	a5, a1, 4
400d248a:	0020c0        	memw
400d248d:	6359      	s32i.n	a5, a3, 24
400d248f:	001246        	j	400d24dc <gpio_esp32_config+0x318>
400d2492:	f91c      	movi.n	a9, 31
400d2494:	f77d31        	l32r	a3, 400d0288 <_image_irom_vaddr+0x268> (3ff44000 <GPIO>)
400d2497:	0d3957        	bltu	a9, a5, 400d24a8 <gpio_esp32_config+0x2e4>
400d249a:	401500        	ssl	a5
400d249d:	a18800        	sll	a8, a8
400d24a0:	0020c0        	memw
400d24a3:	a389      	s32i.n	a8, a3, 40
400d24a5:	000886        	j	400d24cb <gpio_esp32_config+0x307>
400d24a8:	0020c0        	memw
400d24ab:	d398      	l32i.n	a9, a3, 52
400d24ad:	401500        	ssl	a5
400d24b0:	a18800        	sll	a8, a8
400d24b3:	0020c0        	memw
400d24b6:	0199      	s32i.n	a9, a1, 0
400d24b8:	748080        	extui	a8, a8, 0, 8
400d24bb:	0020c0        	memw
400d24be:	004182        	s8i	a8, a1, 0
400d24c1:	0020c0        	memw
400d24c4:	0188      	l32i.n	a8, a1, 0
400d24c6:	0020c0        	memw
400d24c9:	d389      	s32i.n	a8, a3, 52
400d24cb:	f77031        	l32r	a3, 400d028c <_image_irom_vaddr+0x26c> (ffd114c <CONFIG_SYS_CLOCK_HW_CYCLES_PER_SEC+0x1aef54c>)
400d24ce:	553a      	add.n	a5, a5, a3
400d24d0:	1155e0        	slli	a5, a5, 2
400d24d3:	00a132        	movi	a3, 0x100
400d24d6:	0020c0        	memw
400d24d9:	006532        	s32i	a3, a5, 0
400d24dc:	227a      	add.n	a2, a2, a7
400d24de:	0228      	l32i.n	a2, a2, 0
400d24e0:	0020c0        	memw
400d24e3:	0238      	l32i.n	a3, a2, 0
400d24e5:	087407        	bbci	a4, 16, 400d24f1 <gpio_esp32_config+0x32d>
400d24e8:	00a242        	movi	a4, 0x200
400d24eb:	203340        	or	a3, a3, a4
400d24ee:	000146        	j	400d24f7 <gpio_esp32_config+0x333>
400d24f1:	ffad42        	movi	a4, 0xfffffdff
400d24f4:	103340        	and	a3, a3, a4
400d24f7:	0020c0        	memw
400d24fa:	0239      	s32i.n	a3, a2, 0
400d24fc:	020c      	movi.n	a2, 0
400d24fe:	13e660        	wsr.ps	a6
400d2501:	002010        	rsync
400d2504:	f01d      	retw.n
	...

400d2508 <pwm_led_esp32_init>:
400d2508:	004136        	entry	a1, 32
400d250b:	012232        	l32i	a3, a2, 4
400d250e:	0123a2        	l32i	a10, a3, 4
400d2511:	af8de5        	call8	40081df0 <z_device_is_ready>
400d2514:	edaf22        	movi	a2, -19
400d2517:	ba8c      	beqz.n	a10, 400d2526 <pwm_led_esp32_init+0x1e>
400d2519:	13a8      	l32i.n	a10, a3, 4
400d251b:	23b8      	l32i.n	a11, a3, 8
400d251d:	2a28      	l32i.n	a2, a10, 8
400d251f:	0228      	l32i.n	a2, a2, 0
400d2521:	0002e0        	callx8	a2
400d2524:	020c      	movi.n	a2, 0
400d2526:	f01d      	retw.n

400d2528 <pwm_led_esp32_get_cycles_per_sec>:
400d2528:	004136        	entry	a1, 32
400d252b:	1228      	l32i.n	a2, a2, 4
400d252d:	080c      	movi.n	a8, 0
400d252f:	42a8      	l32i.n	a10, a2, 16
400d2531:	000806        	j	400d2555 <pwm_led_esp32_get_cycles_per_sec+0x2d>
400d2534:	32b8      	l32i.n	a11, a2, 12
400d2536:	909880        	addx2	a9, a8, a8
400d2539:	b099b0        	addx8	a9, a9, a11
400d253c:	0009b2        	l8ui	a11, a9, 0
400d253f:	0d93b7        	bne	a3, a11, 400d2550 <pwm_led_esp32_get_cycles_per_sec+0x28>
400d2542:	4938      	l32i.n	a3, a9, 16
400d2544:	f6c721        	l32r	a2, 400d0060 <_image_irom_vaddr+0x40> (f4240 <CONFIG_XTENSA_CCOUNT_HZ>)
400d2547:	122366        	bnei	a3, 2, 400d255d <pwm_led_esp32_get_cycles_per_sec+0x35>
400d254a:	f6c421        	l32r	a2, 400d005c <_image_irom_vaddr+0x3c> (4c4b400 <CONFIG_FLASH_SIZE+0x484b400>)
400d254d:	000306        	j	400d255d <pwm_led_esp32_get_cycles_per_sec+0x35>
400d2550:	881b      	addi.n	a8, a8, 1
400d2552:	748080        	extui	a8, a8, 0, 8
400d2555:	db28a7        	blt	a8, a10, 400d2534 <pwm_led_esp32_get_cycles_per_sec+0xc>
400d2558:	a26c      	movi.n	a2, -22
400d255a:	000146        	j	400d2563 <pwm_led_esp32_get_cycles_per_sec+0x3b>
400d255d:	0429      	s32i.n	a2, a4, 0
400d255f:	020c      	movi.n	a2, 0
400d2561:	1429      	s32i.n	a2, a4, 4
400d2563:	f01d      	retw.n
400d2565:	000000        	ill

400d2568 <pwm_led_esp32_set_cycles>:
400d2568:	008136        	entry	a1, 64
400d256b:	1298      	l32i.n	a9, a2, 4
400d256d:	4278      	l32i.n	a7, a2, 16
400d256f:	49a8      	l32i.n	a10, a9, 16
400d2571:	4159      	s32i.n	a5, a1, 16
400d2573:	080c      	movi.n	a8, 0
400d2575:	000546        	j	400d258e <pwm_led_esp32_set_cycles+0x26>
400d2578:	39b8      	l32i.n	a11, a9, 12
400d257a:	906880        	addx2	a6, a8, a8
400d257d:	b066b0        	addx8	a6, a6, a11
400d2580:	0006b2        	l8ui	a11, a6, 0
400d2583:	0293b7        	bne	a3, a11, 400d2589 <pwm_led_esp32_set_cycles+0x21>
400d2586:	00c906        	j	400d28ae <pwm_led_esp32_set_cycles+0x346>
400d2589:	881b      	addi.n	a8, a8, 1
400d258b:	748080        	extui	a8, a8, 0, 8
400d258e:	e628a7        	blt	a8, a10, 400d2578 <pwm_led_esp32_set_cycles+0x10>
400d2591:	a26c      	movi.n	a2, -22
400d2593:	00db46        	j	400d2904 <pwm_led_esp32_set_cycles+0x39c>
400d2596:	00          	.byte 00
400d2597:	00          	.byte 00
400d2598:	41b190        	srli	a11, a9, 1
400d259b:	021966        	bnei	a9, 1, 400d25a1 <pwm_led_esp32_set_cycles+0x39>
400d259e:	001046        	j	400d25e3 <pwm_led_esp32_set_cycles+0x7b>
400d25a1:	0b9d      	mov.n	a9, a11
400d25a3:	881b      	addi.n	a8, a8, 1
400d25a5:	748080        	extui	a8, a8, 0, 8
400d25a8:	ec98a7        	bne	a8, a10, 400d2598 <pwm_led_esp32_set_cycles+0x30>
400d25ab:	180c      	movi.n	a8, 1
400d25ad:	0d0c      	movi.n	a13, 0
400d25af:	f6aca1        	l32r	a10, 400d0060 <_image_irom_vaddr+0x40> (f4240 <CONFIG_XTENSA_CCOUNT_HZ>)
400d25b2:	4689      	s32i.n	a8, a6, 16
400d25b4:	20c770        	or	a12, a7, a7
400d25b7:	20bdd0        	or	a11, a13, a13
400d25ba:	f6a581        	l32r	a8, 400d0050 <_image_irom_vaddr+0x30> (4000cff8 <__udivdi3>)
400d25bd:	0008e0        	callx8	a8
400d25c0:	4191a0        	srli	a9, a10, 1
400d25c3:	080c      	movi.n	a8, 0
400d25c5:	1a2ab6        	bltui	a10, 2, 400d25e3 <pwm_led_esp32_set_cycles+0x7b>
400d25c8:	5a1c      	movi.n	a10, 21
400d25ca:	000286        	j	400d25d8 <pwm_led_esp32_set_cycles+0x70>
400d25cd:	41b190        	srli	a11, a9, 1
400d25d0:	021966        	bnei	a9, 1, 400d25d6 <pwm_led_esp32_set_cycles+0x6e>
400d25d3:	000306        	j	400d25e3 <pwm_led_esp32_set_cycles+0x7b>
400d25d6:	0b9d      	mov.n	a9, a11
400d25d8:	881b      	addi.n	a8, a8, 1
400d25da:	748080        	extui	a8, a8, 0, 8
400d25dd:	ec98a7        	bne	a8, a10, 400d25cd <pwm_led_esp32_set_cycles+0x65>
400d25e0:	005e46        	j	400d275d <pwm_led_esp32_set_cycles+0x1f5>
400d25e3:	46e8      	l32i.n	a14, a6, 16
400d25e5:	0c4682        	s8i	a8, a6, 12
400d25e8:	4258      	l32i.n	a5, a2, 16
400d25ea:	371e26        	beqi	a14, 1, 400d2625 <pwm_led_esp32_set_cycles+0xbd>
400d25ed:	022e26        	beqi	a14, 2, 400d25f3 <pwm_led_esp32_set_cycles+0x8b>
400d25f0:	005a46        	j	400d275d <pwm_led_esp32_set_cycles+0x1f5>
400d25f3:	f728a1        	l32r	a10, 400d0294 <_image_irom_vaddr+0x274> (c4b40000 <_rtc_bss_end+0x74b40000>)
400d25f6:	07cd      	mov.n	a12, a7
400d25f8:	71e9      	s32i.n	a14, a1, 28
400d25fa:	0d0c      	movi.n	a13, 0
400d25fc:	6189      	s32i.n	a8, a1, 24
400d25fe:	4b0c      	movi.n	a11, 4
400d2600:	f69481        	l32r	a8, 400d0050 <_image_irom_vaddr+0x30> (4000cff8 <__udivdi3>)
400d2603:	0008e0        	callx8	a8
400d2606:	6188      	l32i.n	a8, a1, 24
400d2608:	1d0c      	movi.n	a13, 1
400d260a:	401800        	ssl	a8
400d260d:	a1dd00        	sll	a13, a13
400d2610:	20cdd0        	or	a12, a13, a13
400d2613:	31dfd0        	srai	a13, a13, 31
400d2616:	f68e81        	l32r	a8, 400d0050 <_image_irom_vaddr+0x30> (4000cff8 <__udivdi3>)
400d2619:	0008e0        	callx8	a8
400d261c:	71e8      	l32i.n	a14, a1, 28
400d261e:	0a7d      	mov.n	a7, a10
400d2620:	000346        	j	400d2631 <pwm_led_esp32_set_cycles+0xc9>
400d2623:	00          	.byte 00
400d2624:	00          	.byte 00
400d2625:	f6daa1        	l32r	a10, 400d0190 <_image_irom_vaddr+0x170> (f424000 <CONFIG_SYS_CLOCK_HW_CYCLES_PER_SEC+0xf42400>)
400d2628:	c27a70        	quou	a7, a10, a7
400d262b:	400800        	ssr	a8
400d262e:	917070        	srl	a7, a7
400d2631:	f719a1        	l32r	a10, 400d0298 <_image_irom_vaddr+0x278> (3feff <CONFIG_ESP_HEAP_MEM_POOL_REGION_1_SIZE+0x33eff>)
400d2634:	ffd782        	addmi	a8, a7, 0xffffff00
400d2637:	02ba87        	bgeu	a10, a8, 400d263d <pwm_led_esp32_set_cycles+0xd5>
400d263a:	0047c6        	j	400d275d <pwm_led_esp32_set_cycles+0x1f5>
400d263d:	2688      	l32i.n	a8, a6, 8
400d263f:	061866        	bnei	a8, 1, 400d2649 <pwm_led_esp32_set_cycles+0xe1>
400d2642:	0ebd      	mov.n	a11, a14
400d2644:	05ad      	mov.n	a10, a5
400d2646:	00ba25        	call8	400d31e8 <ledc_hal_set_slow_clk>
400d2649:	0206b2        	l8ui	a11, a6, 2
400d264c:	1588      	l32i.n	a8, a5, 4
400d264e:	05a8      	l32i.n	a10, a5, 0
400d2650:	a088b0        	addx4	a8, a8, a11
400d2653:	28c882        	addi	a8, a8, 40
400d2656:	b088a0        	addx8	a8, a8, a10
400d2659:	f710c1        	l32r	a12, 400d029c <_image_irom_vaddr+0x27c> (3ffff <CONFIG_ESP_HEAP_MEM_POOL_REGION_1_SIZE+0x33fff>)
400d265c:	0020c0        	memw
400d265f:	08a8      	l32i.n	a10, a8, 0
400d2661:	f70fb1        	l32r	a11, 400d02a0 <_image_irom_vaddr+0x280> (ff80001f <_rtc_bss_end+0xaf80001f>)
400d2664:	1077c0        	and	a7, a7, a12
400d2667:	10aab0        	and	a10, a10, a11
400d266a:	1177b0        	slli	a7, a7, 5
400d266d:	207a70        	or	a7, a10, a7
400d2670:	0020c0        	memw
400d2673:	0879      	s32i.n	a7, a8, 0
400d2675:	0206b2        	l8ui	a11, a6, 2
400d2678:	1578      	l32i.n	a7, a5, 4
400d267a:	0588      	l32i.n	a8, a5, 0
400d267c:	a077b0        	addx4	a7, a7, a11
400d267f:	28c772        	addi	a7, a7, 40
400d2682:	b07780        	addx8	a7, a7, a8
400d2685:	0020c0        	memw
400d2688:	0788      	l32i.n	a8, a7, 0
400d268a:	0c06a2        	l8ui	a10, a6, 12
400d268d:	0b6c      	movi.n	a11, -32
400d268f:	44a0a0        	extui	a10, a10, 0, 5
400d2692:	1088b0        	and	a8, a8, a11
400d2695:	2088a0        	or	a8, a8, a10
400d2698:	0020c0        	memw
400d269b:	0789      	s32i.n	a8, a7, 0
400d269d:	1578      	l32i.n	a7, a5, 4
400d269f:	0206c2        	l8ui	a12, a6, 2
400d26a2:	05b8      	l32i.n	a11, a5, 0
400d26a4:	4688      	l32i.n	a8, a6, 16
400d26a6:	a077c0        	addx4	a7, a7, a12
400d26a9:	28c772        	addi	a7, a7, 40
400d26ac:	b077b0        	addx8	a7, a7, a11
400d26af:	fec882        	addi	a8, a8, -2
400d26b2:	1a0c      	movi.n	a10, 1
400d26b4:	0d0c      	movi.n	a13, 0
400d26b6:	93ad80        	movnez	a10, a13, a8
400d26b9:	f6fab1        	l32r	a11, 400d02a4 <_image_irom_vaddr+0x284> (fdffffff <_rtc_bss_end+0xadffffff>)
400d26bc:	0020c0        	memw
400d26bf:	0788      	l32i.n	a8, a7, 0
400d26c1:	01aa70        	slli	a10, a10, 25
400d26c4:	1088b0        	and	a8, a8, a11
400d26c7:	2088a0        	or	a8, a8, a10
400d26ca:	0020c0        	memw
400d26cd:	0789      	s32i.n	a8, a7, 0
400d26cf:	2688      	l32i.n	a8, a6, 8
400d26d1:	1f1866        	bnei	a8, 1, 400d26f4 <pwm_led_esp32_set_cycles+0x18c>
400d26d4:	1578      	l32i.n	a7, a5, 4
400d26d6:	0206b2        	l8ui	a11, a6, 2
400d26d9:	05a8      	l32i.n	a10, a5, 0
400d26db:	a077b0        	addx4	a7, a7, a11
400d26de:	28c772        	addi	a7, a7, 40
400d26e1:	b077a0        	addx8	a7, a7, a10
400d26e4:	0020c0        	memw
400d26e7:	07a8      	l32i.n	a10, a7, 0
400d26e9:	018860        	slli	a8, a8, 26
400d26ec:	208a80        	or	a8, a10, a8
400d26ef:	0020c0        	memw
400d26f2:	0789      	s32i.n	a8, a7, 0
400d26f4:	020692        	l8ui	a9, a6, 2
400d26f7:	1578      	l32i.n	a7, a5, 4
400d26f9:	0588      	l32i.n	a8, a5, 0
400d26fb:	a07790        	addx4	a7, a7, a9
400d26fe:	28c772        	addi	a7, a7, 40
400d2701:	b07780        	addx8	a7, a7, a8
400d2704:	0020c0        	memw
400d2707:	0788      	l32i.n	a8, a7, 0
400d2709:	190c      	movi.n	a9, 1
400d270b:	019980        	slli	a9, a9, 24
400d270e:	208890        	or	a8, a8, a9
400d2711:	0020c0        	memw
400d2714:	0789      	s32i.n	a8, a7, 0
400d2716:	0020c0        	memw
400d2719:	0788      	l32i.n	a8, a7, 0
400d271b:	f6e391        	l32r	a9, 400d02a8 <_image_irom_vaddr+0x288> (feffffff <_rtc_bss_end+0xaeffffff>)
400d271e:	108890        	and	a8, a8, a9
400d2721:	0020c0        	memw
400d2724:	0789      	s32i.n	a8, a7, 0
400d2726:	4278      	l32i.n	a7, a2, 16
400d2728:	0206a2        	l8ui	a10, a6, 2
400d272b:	1788      	l32i.n	a8, a7, 4
400d272d:	0798      	l32i.n	a9, a7, 0
400d272f:	010672        	l8ui	a7, a6, 1
400d2732:	a08880        	addx4	a8, a8, a8
400d2735:	1188b0        	slli	a8, a8, 5
400d2738:	a07770        	addx4	a7, a7, a7
400d273b:	a07780        	addx4	a7, a7, a8
400d273e:	897a      	add.n	a8, a9, a7
400d2740:	0020c0        	memw
400d2743:	0878      	l32i.n	a7, a8, 0
400d2745:	1490a0        	extui	a9, a10, 0, 2
400d2748:	ca7c      	movi.n	a10, -4
400d274a:	1077a0        	and	a7, a7, a10
400d274d:	207790        	or	a7, a7, a9
400d2750:	0020c0        	memw
400d2753:	0879      	s32i.n	a7, a8, 0
400d2755:	2678      	l32i.n	a7, a6, 8
400d2757:	121766        	bnei	a7, 1, 400d276d <pwm_led_esp32_set_cycles+0x205>
400d275a:	0001c6        	j	400d2765 <pwm_led_esp32_set_cycles+0x1fd>
400d275d:	03ad      	mov.n	a10, a3
400d275f:	aeb5a5        	call8	400812b8 <z_impl_k_sem_give>
400d2762:	ff8ac6        	j	400d2591 <pwm_led_esp32_set_cycles+0x29>
400d2765:	0106b2        	l8ui	a11, a6, 1
400d2768:	42a8      	l32i.n	a10, a2, 16
400d276a:	00a265        	call8	400d3190 <ledc_hal_ls_channel_update>
400d276d:	41a8      	l32i.n	a10, a1, 16
400d276f:	170c      	movi.n	a7, 1
400d2771:	f6ce81        	l32r	a8, 400d02ac <_image_irom_vaddr+0x28c> (4000c938 <__floatunsidf>)
400d2774:	0008e0        	callx8	a8
400d2777:	41a9      	s32i.n	a10, a1, 16
400d2779:	51b9      	s32i.n	a11, a1, 20
400d277b:	04ad      	mov.n	a10, a4
400d277d:	f6cb81        	l32r	a8, 400d02ac <_image_irom_vaddr+0x28c> (4000c938 <__floatunsidf>)
400d2780:	0008e0        	callx8	a8
400d2783:	0acd      	mov.n	a12, a10
400d2785:	0bdd      	mov.n	a13, a11
400d2787:	41a8      	l32i.n	a10, a1, 16
400d2789:	51b8      	l32i.n	a11, a1, 20
400d278b:	f6c981        	l32r	a8, 400d02b0 <_image_irom_vaddr+0x290> (40002954 <__divdf3>)
400d278e:	0008e0        	callx8	a8
400d2791:	0a4d      	mov.n	a4, a10
400d2793:	0c06a2        	l8ui	a10, a6, 12
400d2796:	0b5d      	mov.n	a5, a11
400d2798:	401a00        	ssl	a10
400d279b:	a1a700        	sll	a10, a7
400d279e:	f6c581        	l32r	a8, 400d02b4 <_image_irom_vaddr+0x294> (4000c944 <__floatsidf>)
400d27a1:	0008e0        	callx8	a8
400d27a4:	0bdd      	mov.n	a13, a11
400d27a6:	0acd      	mov.n	a12, a10
400d27a8:	05bd      	mov.n	a11, a5
400d27aa:	04ad      	mov.n	a10, a4
400d27ac:	f6c381        	l32r	a8, 400d02b8 <_image_irom_vaddr+0x298> (4006358c <__muldf3>)
400d27af:	0008e0        	callx8	a8
400d27b2:	f6c281        	l32r	a8, 400d02bc <_image_irom_vaddr+0x29c> (40002b30 <__fixunsdfsi>)
400d27b5:	0008e0        	callx8	a8
400d27b8:	56a9      	s32i.n	a10, a6, 20
400d27ba:	4248      	l32i.n	a4, a2, 16
400d27bc:	0106b2        	l8ui	a11, a6, 1
400d27bf:	04ad      	mov.n	a10, a4
400d27c1:	0c0c      	movi.n	a12, 0
400d27c3:	fe27e5        	call8	400d0a40 <ledc_hal_set_hpoint>
400d27c6:	1488      	l32i.n	a8, a4, 4
400d27c8:	010652        	l8ui	a5, a6, 1
400d27cb:	a08880        	addx4	a8, a8, a8
400d27ce:	0498      	l32i.n	a9, a4, 0
400d27d0:	1188b0        	slli	a8, a8, 5
400d27d3:	a05550        	addx4	a5, a5, a5
400d27d6:	56a8      	l32i.n	a10, a6, 20
400d27d8:	a05580        	addx4	a5, a5, a8
400d27db:	895a      	add.n	a8, a9, a5
400d27dd:	f66651        	l32r	a5, 400d0178 <_image_irom_vaddr+0x158> (1ffffff <CONFIG_FLASH_SIZE+0x1bfffff>)
400d27e0:	11aac0        	slli	a10, a10, 4
400d27e3:	109a50        	and	a9, a10, a5
400d27e6:	0020c0        	memw
400d27e9:	2858      	l32i.n	a5, a8, 8
400d27eb:	fa7c      	movi.n	a10, -1
400d27ed:	01aa70        	slli	a10, a10, 25
400d27f0:	1055a0        	and	a5, a5, a10
400d27f3:	205590        	or	a5, a5, a9
400d27f6:	0020c0        	memw
400d27f9:	2859      	s32i.n	a5, a8, 8
400d27fb:	0106b2        	l8ui	a11, a6, 1
400d27fe:	04ad      	mov.n	a10, a4
400d2800:	07cd      	mov.n	a12, a7
400d2802:	fe2725        	call8	400d0a74 <ledc_hal_set_duty_direction>
400d2805:	0106b2        	l8ui	a11, a6, 1
400d2808:	04ad      	mov.n	a10, a4
400d280a:	07cd      	mov.n	a12, a7
400d280c:	fe2965        	call8	400d0aa4 <ledc_hal_set_duty_num>
400d280f:	0106b2        	l8ui	a11, a6, 1
400d2812:	04ad      	mov.n	a10, a4
400d2814:	07cd      	mov.n	a12, a7
400d2816:	fe2be5        	call8	400d0ad4 <ledc_hal_set_duty_cycle>
400d2819:	0106b2        	l8ui	a11, a6, 1
400d281c:	04ad      	mov.n	a10, a4
400d281e:	0c0c      	movi.n	a12, 0
400d2820:	009965        	call8	400d31b8 <ledc_hal_set_duty_scale>
400d2823:	2648      	l32i.n	a4, a6, 8
400d2825:	079477        	bne	a4, a7, 400d2830 <pwm_led_esp32_set_cycles+0x2c8>
400d2828:	0106b2        	l8ui	a11, a6, 1
400d282b:	42a8      	l32i.n	a10, a2, 16
400d282d:	009625        	call8	400d3190 <ledc_hal_ls_channel_update>
400d2830:	4288      	l32i.n	a8, a2, 16
400d2832:	0106b2        	l8ui	a11, a6, 1
400d2835:	1848      	l32i.n	a4, a8, 4
400d2837:	0858      	l32i.n	a5, a8, 0
400d2839:	a04440        	addx4	a4, a4, a4
400d283c:	2678      	l32i.n	a7, a6, 8
400d283e:	1144b0        	slli	a4, a4, 5
400d2841:	a06bb0        	addx4	a6, a11, a11
400d2844:	a04640        	addx4	a4, a6, a4
400d2847:	454a      	add.n	a4, a5, a4
400d2849:	0020c0        	memw
400d284c:	0458      	l32i.n	a5, a4, 0
400d284e:	490c      	movi.n	a9, 4
400d2850:	205590        	or	a5, a5, a9
400d2853:	0020c0        	memw
400d2856:	0459      	s32i.n	a5, a4, 0
400d2858:	1848      	l32i.n	a4, a8, 4
400d285a:	0858      	l32i.n	a5, a8, 0
400d285c:	a04440        	addx4	a4, a4, a4
400d285f:	1144b0        	slli	a4, a4, 5
400d2862:	a06640        	addx4	a6, a6, a4
400d2865:	456a      	add.n	a4, a5, a6
400d2867:	0020c0        	memw
400d286a:	3458      	l32i.n	a5, a4, 12
400d286c:	f67c      	movi.n	a6, -1
400d286e:	016610        	slli	a6, a6, 31
400d2871:	205560        	or	a5, a5, a6
400d2874:	0020c0        	memw
400d2877:	3459      	s32i.n	a5, a4, 12
400d2879:	041766        	bnei	a7, 1, 400d2881 <pwm_led_esp32_set_cycles+0x319>
400d287c:	42a8      	l32i.n	a10, a2, 16
400d287e:	009125        	call8	400d3190 <ledc_hal_ls_channel_update>
400d2881:	1228      	l32i.n	a2, a2, 4
400d2883:	c18b      	addi.n	a12, a1, 8
400d2885:	02a8      	l32i.n	a10, a2, 0
400d2887:	0b0c      	movi.n	a11, 0
400d2889:	002b65        	call8	400d2b40 <pinctrl_lookup_state>
400d288c:	0a2d      	mov.n	a2, a10
400d288e:	013a96        	bltz	a10, 400d28a5 <pwm_led_esp32_set_cycles+0x33d>
400d2891:	2128      	l32i.n	a2, a1, 8
400d2893:	0c0c      	movi.n	a12, 0
400d2895:	0402b2        	l8ui	a11, a2, 4
400d2898:	02a8      	l32i.n	a10, a2, 0
400d289a:	020c      	movi.n	a2, 0
400d289c:	002d25        	call8	400d2b70 <pinctrl_configure_pins>
400d289f:	02aa27        	bge	a10, a2, 400d28a5 <pwm_led_esp32_set_cycles+0x33d>
400d28a2:	432a20        	min	a2, a10, a2
400d28a5:	03ad      	mov.n	a10, a3
400d28a7:	aea125        	call8	400812b8 <z_impl_k_sem_give>
400d28aa:	001586        	j	400d2904 <pwm_led_esp32_set_cycles+0x39c>
400d28ad:	00          	.byte 00
400d28ae:	20c110        	or	a12, a1, a1
400d28b1:	03bd      	mov.n	a11, a3
400d28b3:	02ad      	mov.n	a10, a2
400d28b5:	ffc725        	call8	400d2528 <pwm_led_esp32_get_cycles_per_sec>
400d28b8:	01a8      	l32i.n	a10, a1, 0
400d28ba:	11b8      	l32i.n	a11, a1, 4
400d28bc:	04cd      	mov.n	a12, a4
400d28be:	0d0c      	movi.n	a13, 0
400d28c0:	f5e481        	l32r	a8, 400d0050 <_image_irom_vaddr+0x30> (4000cff8 <__udivdi3>)
400d28c3:	0008e0        	callx8	a8
400d28c6:	130c      	movi.n	a3, 1
400d28c8:	73aa30        	maxu	a10, a10, a3
400d28cb:	16a9      	s32i.n	a10, a6, 4
400d28cd:	378b      	addi.n	a3, a7, 8
400d28cf:	fc7c      	movi.n	a12, -1
400d28d1:	0cdd      	mov.n	a13, a12
400d28d3:	03ad      	mov.n	a10, a3
400d28d5:	aea1e5        	call8	400812f4 <z_impl_k_sem_take>
400d28d8:	26b8      	l32i.n	a11, a6, 8
400d28da:	07ad      	mov.n	a10, a7
400d28dc:	270c      	movi.n	a7, 2
400d28de:	fe2265        	call8	400d0b04 <ledc_hal_init>
400d28e1:	4679      	s32i.n	a7, a6, 16
400d28e3:	1678      	l32i.n	a7, a6, 4
400d28e5:	0d0c      	movi.n	a13, 0
400d28e7:	f5dda1        	l32r	a10, 400d005c <_image_irom_vaddr+0x3c> (4c4b400 <CONFIG_FLASH_SIZE+0x484b400>)
400d28ea:	07cd      	mov.n	a12, a7
400d28ec:	0dbd      	mov.n	a11, a13
400d28ee:	f5d881        	l32r	a8, 400d0050 <_image_irom_vaddr+0x30> (4000cff8 <__udivdi3>)
400d28f1:	0008e0        	callx8	a8
400d28f4:	4191a0        	srli	a9, a10, 1
400d28f7:	080c      	movi.n	a8, 0
400d28f9:	022af6        	bgeui	a10, 2, 400d28ff <pwm_led_esp32_set_cycles+0x397>
400d28fc:	ff38c6        	j	400d25e3 <pwm_led_esp32_set_cycles+0x7b>
400d28ff:	5a1c      	movi.n	a10, 21
400d2901:	ff2786        	j	400d25a3 <pwm_led_esp32_set_cycles+0x3b>
400d2904:	f01d      	retw.n
	...

400d2908 <uart_esp32_config_get>:
400d2908:	006136        	entry	a1, 48
400d290b:	4228      	l32i.n	a2, a2, 16
400d290d:	b1cb      	addi.n	a11, a1, 12
400d290f:	0288      	l32i.n	a8, a2, 0
400d2911:	228b      	addi.n	a2, a2, 8
400d2913:	0389      	s32i.n	a8, a3, 0
400d2915:	02ad      	mov.n	a10, a2
400d2917:	0079a5        	call8	400d30b0 <uart_hal_get_parity>
400d291a:	3188      	l32i.n	a8, a1, 12
400d291c:	0c2826        	beqi	a8, 2, 400d292c <uart_esp32_config_get+0x24>
400d291f:	073826        	beqi	a8, 3, 400d292a <uart_esp32_config_get+0x22>
400d2922:	688c      	beqz.n	a8, 400d292c <uart_esp32_config_get+0x24>
400d2924:	7aaf22        	movi	a2, -134
400d2927:	001686        	j	400d2985 <uart_esp32_config_get+0x7d>
400d292a:	180c      	movi.n	a8, 1
400d292c:	044382        	s8i	a8, a3, 4
400d292f:	08c1b2        	addi	a11, a1, 8
400d2932:	20a220        	or	a10, a2, a2
400d2935:	006e65        	call8	400d301c <uart_hal_get_stop_bits>
400d2938:	022182        	l32i	a8, a1, 8
400d293b:	052826        	beqi	a8, 2, 400d2944 <uart_esp32_config_get+0x3c>
400d293e:	023826        	beqi	a8, 3, 400d2944 <uart_esp32_config_get+0x3c>
400d2941:	df1866        	bnei	a8, 1, 400d2924 <uart_esp32_config_get+0x1c>
400d2944:	054382        	s8i	a8, a3, 5
400d2947:	04c1b2        	addi	a11, a1, 4
400d294a:	20a220        	or	a10, a2, a2
400d294d:	007165        	call8	400d3064 <uart_hal_get_data_bit_num>
400d2950:	012182        	l32i	a8, a1, 4
400d2953:	152826        	beqi	a8, 2, 400d296c <uart_esp32_config_get+0x64>
400d2956:	0f38f6        	bgeui	a8, 3, 400d2969 <uart_esp32_config_get+0x61>
400d2959:	190c      	movi.n	a9, 1
400d295b:	0a0c      	movi.n	a10, 0
400d295d:	839a80        	moveqz	a9, a10, a8
400d2960:	748090        	extui	a8, a9, 0, 8
400d2963:	000146        	j	400d296c <uart_esp32_config_get+0x64>
400d2966:	00          	.byte 00
400d2967:	00          	.byte 00
400d2968:	00          	.byte 00
400d2969:	b73866        	bnei	a8, 3, 400d2924 <uart_esp32_config_get+0x1c>
400d296c:	02ad      	mov.n	a10, a2
400d296e:	064382        	s8i	a8, a3, 6
400d2971:	01bd      	mov.n	a11, a1
400d2973:	0075e5        	call8	400d30d0 <uart_hal_get_hw_flow_ctrl>
400d2976:	0128      	l32i.n	a2, a1, 0
400d2978:	004216        	beqz	a2, 400d2980 <uart_esp32_config_get+0x78>
400d297b:	a53266        	bnei	a2, 3, 400d2924 <uart_esp32_config_get+0x1c>
400d297e:	120c      	movi.n	a2, 1
400d2980:	074322        	s8i	a2, a3, 7
400d2983:	020c      	movi.n	a2, 0
400d2985:	f01d      	retw.n
	...

400d2988 <uart_esp32_poll_out>:
400d2988:	008136        	entry	a1, 64
400d298b:	0422a2        	l32i	a10, a2, 16
400d298e:	104132        	s8i	a3, a1, 16
400d2991:	022a92        	l32i	a9, a10, 8
400d2994:	0020c0        	memw
400d2997:	072982        	l32i	a8, a9, 28
400d299a:	0020c0        	memw
400d299d:	006182        	s32i	a8, a1, 0
400d29a0:	0020c0        	memw
400d29a3:	020182        	l8ui	a8, a1, 2
400d29a6:	748080        	extui	a8, a8, 0, 8
400d29a9:	e7e826        	beqi	a8, 128, 400d2994 <uart_esp32_poll_out+0xc>
400d29ac:	04c1d2        	addi	a13, a1, 4
400d29af:	1c0c      	movi.n	a12, 1
400d29b1:	10c1b2        	addi	a11, a1, 16
400d29b4:	aa8b      	addi.n	a10, a10, 8
400d29b6:	fdf6e5        	call8	400d0924 <uart_hal_write_txfifo>
400d29b9:	f01d      	retw.n
	...

400d29bc <uart_esp32_poll_in>:
400d29bc:	006136        	entry	a1, 48
400d29bf:	42a8      	l32i.n	a10, a2, 16
400d29c1:	120c      	movi.n	a2, 1
400d29c3:	2a88      	l32i.n	a8, a10, 8
400d29c5:	2129      	s32i.n	a2, a1, 8
400d29c7:	0020c0        	memw
400d29ca:	7828      	l32i.n	a2, a8, 28
400d29cc:	03bd      	mov.n	a11, a3
400d29ce:	0020c0        	memw
400d29d1:	0129      	s32i.n	a2, a1, 0
400d29d3:	0020c0        	memw
400d29d6:	000122        	l8ui	a2, a1, 0
400d29d9:	0020c0        	memw
400d29dc:	182882        	l32i	a8, a8, 96
400d29df:	742020        	extui	a2, a2, 0, 8
400d29e2:	0020c0        	memw
400d29e5:	1189      	s32i.n	a8, a1, 4
400d29e7:	0020c0        	memw
400d29ea:	1188      	l32i.n	a8, a1, 4
400d29ec:	0020c0        	memw
400d29ef:	1198      	l32i.n	a9, a1, 4
400d29f1:	a48d80        	extui	a8, a8, 13, 11
400d29f4:	a49290        	extui	a9, a9, 2, 11
400d29f7:	12b987        	bgeu	a9, a8, 400d2a0d <uart_esp32_poll_in+0x51>
400d29fa:	0020c0        	memw
400d29fd:	1188      	l32i.n	a8, a1, 4
400d29ff:	0020c0        	memw
400d2a02:	1128      	l32i.n	a2, a1, 4
400d2a04:	a48d80        	extui	a8, a8, 13, 11
400d2a07:	a42220        	extui	a2, a2, 2, 11
400d2a0a:	0009c6        	j	400d2a35 <uart_esp32_poll_in+0x79>
400d2a0d:	0020c0        	memw
400d2a10:	1198      	l32i.n	a9, a1, 4
400d2a12:	0020c0        	memw
400d2a15:	1188      	l32i.n	a8, a1, 4
400d2a17:	a49d90        	extui	a9, a9, 13, 11
400d2a1a:	a48280        	extui	a8, a8, 2, 11
400d2a1d:	1bb987        	bgeu	a9, a8, 400d2a3c <uart_esp32_poll_in+0x80>
400d2a20:	0020c0        	memw
400d2a23:	1188      	l32i.n	a8, a1, 4
400d2a25:	0020c0        	memw
400d2a28:	1128      	l32i.n	a2, a1, 4
400d2a2a:	a48d80        	extui	a8, a8, 13, 11
400d2a2d:	80a092        	movi	a9, 128
400d2a30:	a42220        	extui	a2, a2, 2, 11
400d2a33:	889a      	add.n	a8, a8, a9
400d2a35:	c08820        	sub	a8, a8, a2
400d2a38:	000206        	j	400d2a44 <uart_esp32_poll_in+0x88>
400d2a3b:	00          	.byte 00
400d2a3c:	82cc      	bnez.n	a2, 400d2a48 <uart_esp32_poll_in+0x8c>
400d2a3e:	f27c      	movi.n	a2, -1
400d2a40:	000406        	j	400d2a54 <uart_esp32_poll_in+0x98>
400d2a43:	00          	.byte 00
400d2a44:	f27c      	movi.n	a2, -1
400d2a46:	a88c      	beqz.n	a8, 400d2a54 <uart_esp32_poll_in+0x98>
400d2a48:	08c1c2        	addi	a12, a1, 8
400d2a4b:	08caa2        	addi	a10, a10, 8
400d2a4e:	fdf325        	call8	400d0980 <uart_hal_read_rxfifo>
400d2a51:	00a022        	movi	a2, 0
400d2a54:	f01d      	retw.n
	...

400d2a58 <uart_esp32_configure>:
400d2a58:	006136        	entry	a1, 48
400d2a5b:	012252        	l32i	a5, a2, 4
400d2a5e:	01cd      	mov.n	a12, a1
400d2a60:	15a8      	l32i.n	a10, a5, 4
400d2a62:	00a0b2        	movi	a11, 0
400d2a65:	4248      	l32i.n	a4, a2, 16
400d2a67:	000da5        	call8	400d2b40 <pinctrl_lookup_state>
400d2a6a:	0a2d      	mov.n	a2, a10
400d2a6c:	0b8a96        	bltz	a10, 400d2b28 <uart_esp32_configure+0xd0>
400d2a6f:	0128      	l32i.n	a2, a1, 0
400d2a71:	0c0c      	movi.n	a12, 0
400d2a73:	0402b2        	l8ui	a11, a2, 4
400d2a76:	0022a2        	l32i	a10, a2, 0
400d2a79:	000f65        	call8	400d2b70 <pinctrl_configure_pins>
400d2a7c:	0a2d      	mov.n	a2, a10
400d2a7e:	0a6a96        	bltz	a10, 400d2b28 <uart_esp32_configure+0xd0>
400d2a81:	05a8      	l32i.n	a10, a5, 0
400d2a83:	af36e5        	call8	40081df0 <z_device_is_ready>
400d2a86:	d26c      	movi.n	a2, -19
400d2a88:	09ca16        	beqz	a10, 400d2b28 <uart_esp32_configure+0xd0>
400d2a8b:	05a8      	l32i.n	a10, a5, 0
400d2a8d:	25b8      	l32i.n	a11, a5, 8
400d2a8f:	2a28      	l32i.n	a2, a10, 8
400d2a91:	448b      	addi.n	a4, a4, 8
400d2a93:	0228      	l32i.n	a2, a2, 0
400d2a95:	0002e0        	callx8	a2
400d2a98:	0b0c      	movi.n	a11, 0
400d2a9a:	04ad      	mov.n	a10, a4
400d2a9c:	fdcce5        	call8	400d076c <uart_hal_set_sclk>
400d2a9f:	6b1c      	movi.n	a11, 22
400d2aa1:	04ad      	mov.n	a10, a4
400d2aa3:	006525        	call8	400d30f4 <uart_hal_set_rxfifo_full_thr>
400d2aa6:	1b0c      	movi.n	a11, 1
400d2aa8:	04ad      	mov.n	a10, a4
400d2aaa:	fdd9e5        	call8	400d0848 <uart_hal_set_txfifo_empty_thr>
400d2aad:	04ad      	mov.n	a10, a4
400d2aaf:	fde1e5        	call8	400d08cc <uart_hal_rxfifo_rst>
400d2ab2:	0403b2        	l8ui	a11, a3, 4
400d2ab5:	0b1b26        	beqi	a11, 1, 400d2ac4 <uart_esp32_configure+0x6c>
400d2ab8:	0a2b26        	beqi	a11, 2, 400d2ac6 <uart_esp32_configure+0x6e>
400d2abb:	7b8c      	beqz.n	a11, 400d2ac6 <uart_esp32_configure+0x6e>
400d2abd:	7aaf22        	movi	a2, -134
400d2ac0:	001906        	j	400d2b28 <uart_esp32_configure+0xd0>
400d2ac3:	00          	.byte 00
400d2ac4:	3b0c      	movi.n	a11, 3
400d2ac6:	04ad      	mov.n	a10, a4
400d2ac8:	201110        	or	a1, a1, a1
400d2acb:	005ae5        	call8	400d3078 <uart_hal_set_parity>
400d2ace:	0503b2        	l8ui	a11, a3, 5
400d2ad1:	052b26        	beqi	a11, 2, 400d2ada <uart_esp32_configure+0x82>
400d2ad4:	023b26        	beqi	a11, 3, 400d2ada <uart_esp32_configure+0x82>
400d2ad7:	e21b66        	bnei	a11, 1, 400d2abd <uart_esp32_configure+0x65>
400d2ada:	04ad      	mov.n	a10, a4
400d2adc:	004e65        	call8	400d2fc4 <uart_hal_set_stop_bits>
400d2adf:	0603b2        	l8ui	a11, a3, 6
400d2ae2:	122b26        	beqi	a11, 2, 400d2af8 <uart_esp32_configure+0xa0>
400d2ae5:	073bf6        	bgeui	a11, 3, 400d2af0 <uart_esp32_configure+0x98>
400d2ae8:	abcc      	bnez.n	a11, 400d2af6 <uart_esp32_configure+0x9e>
400d2aea:	000286        	j	400d2af8 <uart_esp32_configure+0xa0>
400d2aed:	00          	.byte 00
400d2aee:	00          	.byte 00
400d2aef:	00          	.byte 00
400d2af0:	043b26        	beqi	a11, 3, 400d2af8 <uart_esp32_configure+0xa0>
400d2af3:	fff186        	j	400d2abd <uart_esp32_configure+0x65>
400d2af6:	1b0c      	movi.n	a11, 1
400d2af8:	04ad      	mov.n	a10, a4
400d2afa:	0054a5        	call8	400d3044 <uart_hal_set_data_bit_num>
400d2afd:	0703b2        	l8ui	a11, a3, 7
400d2b00:	4b8c      	beqz.n	a11, 400d2b08 <uart_esp32_configure+0xb0>
400d2b02:	081b26        	beqi	a11, 1, 400d2b0e <uart_esp32_configure+0xb6>
400d2b05:	ffed06        	j	400d2abd <uart_esp32_configure+0x65>
400d2b08:	0bcd      	mov.n	a12, a11
400d2b0a:	000146        	j	400d2b13 <uart_esp32_configure+0xbb>
400d2b0d:	00          	.byte 00
400d2b0e:	0aa0c2        	movi	a12, 10
400d2b11:	3b0c      	movi.n	a11, 3
400d2b13:	04ad      	mov.n	a10, a4
400d2b15:	fdcca5        	call8	400d07e0 <uart_hal_set_hw_flow_ctrl>
400d2b18:	03b8      	l32i.n	a11, a3, 0
400d2b1a:	04ad      	mov.n	a10, a4
400d2b1c:	fdc725        	call8	400d0790 <uart_hal_set_baudrate>
400d2b1f:	6b1c      	movi.n	a11, 22
400d2b21:	04ad      	mov.n	a10, a4
400d2b23:	fdd465        	call8	400d0868 <uart_hal_set_rx_timeout>
400d2b26:	020c      	movi.n	a2, 0
400d2b28:	f01d      	retw.n
	...

400d2b2c <uart_esp32_init>:
400d2b2c:	004136        	entry	a1, 32
400d2b2f:	0422b2        	l32i	a11, a2, 16
400d2b32:	20a220        	or	a10, a2, a2
400d2b35:	fff225        	call8	400d2a58 <uart_esp32_configure>
400d2b38:	202aa0        	or	a2, a10, a10
400d2b3b:	f01d      	retw.n
400d2b3d:	000000        	ill

400d2b40 <pinctrl_lookup_state>:
400d2b40:	004136        	entry	a1, 32
400d2b43:	0288      	l32i.n	a8, a2, 0
400d2b45:	f5deb1        	l32r	a11, 400d02c0 <_image_irom_vaddr+0x2a0> (1fffffff <CONFIG_SYS_CLOCK_HW_CYCLES_PER_SEC+0x11b1e3ff>)
400d2b48:	743030        	extui	a3, a3, 0, 8
400d2b4b:	000246        	j	400d2b58 <pinctrl_lookup_state+0x18>
400d2b4e:	00          	.byte 00
400d2b4f:	00          	.byte 00
400d2b50:	050892        	l8ui	a9, a8, 5
400d2b53:	151937        	beq	a9, a3, 400d2b6c <pinctrl_lookup_state+0x2c>
400d2b56:	888b      	addi.n	a8, a8, 8
400d2b58:	0489      	s32i.n	a8, a4, 0
400d2b5a:	040292        	l8ui	a9, a2, 4
400d2b5d:	02a8      	l32i.n	a10, a2, 0
400d2b5f:	99ba      	add.n	a9, a9, a11
400d2b61:	b099a0        	addx8	a9, a9, a10
400d2b64:	e8b987        	bgeu	a9, a8, 400d2b50 <pinctrl_lookup_state+0x10>
400d2b67:	e27c      	movi.n	a2, -2
400d2b69:	000046        	j	400d2b6e <pinctrl_lookup_state+0x2e>
400d2b6c:	020c      	movi.n	a2, 0
400d2b6e:	f01d      	retw.n

400d2b70 <pinctrl_configure_pins>:
400d2b70:	008136        	entry	a1, 64
400d2b73:	743030        	extui	a3, a3, 0, 8
400d2b76:	b03320        	addx8	a3, a3, a2
400d2b79:	5139      	s32i.n	a3, a1, 20
400d2b7b:	052c      	movi.n	a5, 32
400d2b7d:	00eb86        	j	400d2f2f <pinctrl_configure_pins+0x3bf>
400d2b80:	00          	.byte 00
400d2b81:	00          	.byte 00
400d2b82:	0298      	l32i.n	a9, a2, 0
400d2b84:	0b0c      	movi.n	a11, 0
400d2b86:	f5cfc1        	l32r	a12, 400d02c4 <_image_irom_vaddr+0x2a4> (3f4009cc <esp32_gpio_ports_addrs>)
400d2b89:	544090        	extui	a4, a9, 0, 6
400d2b8c:	846690        	extui	a6, a9, 6, 9
400d2b8f:	847f90        	extui	a7, a9, 15, 9
400d2b92:	1a0c      	movi.n	a10, 1
400d2b94:	109950        	and	a9, a9, a5
400d2b97:	0b3d      	mov.n	a3, a11
400d2b99:	933a90        	movnez	a3, a10, a9
400d2b9c:	a033c0        	addx4	a3, a3, a12
400d2b9f:	0338      	l32i.n	a3, a3, 0
400d2ba1:	1288      	l32i.n	a8, a2, 4
400d2ba3:	0293b7        	bne	a3, a11, 400d2ba9 <pinctrl_configure_pins+0x39>
400d2ba6:	00e486        	j	400d2f3c <pinctrl_configure_pins+0x3cc>
400d2ba9:	143080        	extui	a3, a8, 0, 2
400d2bac:	082326        	beqi	a3, 2, 400d2bb8 <pinctrl_configure_pins+0x48>
400d2baf:	fdc332        	addi	a3, a3, -3
400d2bb2:	93ab30        	movnez	a10, a11, a3
400d2bb5:	113ae0        	slli	a3, a10, 2
400d2bb8:	14a280        	extui	a10, a8, 2, 2
400d2bbb:	051a26        	beqi	a10, 1, 400d2bc4 <pinctrl_configure_pins+0x54>
400d2bbe:	082a26        	beqi	a10, 2, 400d2bca <pinctrl_configure_pins+0x5a>
400d2bc1:	000286        	j	400d2bcf <pinctrl_configure_pins+0x5f>
400d2bc4:	8a0c      	movi.n	a10, 8
400d2bc6:	000086        	j	400d2bcc <pinctrl_configure_pins+0x5c>
400d2bc9:	00          	.byte 00
400d2bca:	0a1c      	movi.n	a10, 16
400d2bcc:	2033a0        	or	a3, a3, a10
400d2bcf:	01aeb2        	movi	a11, 0xfffffe01
400d2bd2:	0c0c      	movi.n	a12, 0
400d2bd4:	e6ba      	add.n	a14, a6, a11
400d2bd6:	1a0c      	movi.n	a10, 1
400d2bd8:	0cdd      	mov.n	a13, a12
400d2bda:	b7ba      	add.n	a11, a7, a11
400d2bdc:	83dae0        	moveqz	a13, a10, a14
400d2bdf:	93acb0        	movnez	a10, a12, a11
400d2be2:	10dda0        	and	a13, a13, a10
400d2be5:	021dc7        	beq	a13, a12, 400d2beb <pinctrl_configure_pins+0x7b>
400d2be8:	00d546        	j	400d2f41 <pinctrl_configure_pins+0x3d1>
400d2beb:	ffa1a2        	movi	a10, 0x1ff
400d2bee:	0216a7        	beq	a6, a10, 400d2bf4 <pinctrl_configure_pins+0x84>
400d2bf1:	203350        	or	a3, a3, a5
400d2bf4:	0417a7        	beq	a7, a10, 400d2bfc <pinctrl_configure_pins+0x8c>
400d2bf7:	0a4c      	movi.n	a10, 64
400d2bf9:	2033a0        	or	a3, a3, a10
400d2bfc:	148480        	extui	a8, a8, 4, 2
400d2bff:	071826        	beqi	a8, 1, 400d2c0a <pinctrl_configure_pins+0x9a>
400d2c02:	0b0c      	movi.n	a11, 0
400d2c04:	442866        	bnei	a8, 2, 400d2c4c <pinctrl_configure_pins+0xdc>
400d2c07:	000186        	j	400d2c11 <pinctrl_configure_pins+0xa1>
400d2c0a:	e98c      	beqz.n	a9, 400d2c1c <pinctrl_configure_pins+0xac>
400d2c0c:	000606        	j	400d2c28 <pinctrl_configure_pins+0xb8>
400d2c0f:	00          	.byte 00
400d2c10:	00          	.byte 00
400d2c11:	00a182        	movi	a8, 0x100
400d2c14:	203380        	or	a3, a3, a8
400d2c17:	69fc      	bnez.n	a9, 400d2c51 <pinctrl_configure_pins+0xe1>
400d2c19:	000906        	j	400d2c41 <pinctrl_configure_pins+0xd1>
400d2c1c:	f5ab81        	l32r	a8, 400d02c8 <_image_irom_vaddr+0x2a8> (3ff44000 <GPIO>)
400d2c1f:	0020c0        	memw
400d2c22:	2849      	s32i.n	a4, a8, 8
400d2c24:	000306        	j	400d2c34 <pinctrl_configure_pins+0xc4>
400d2c27:	00          	.byte 00
400d2c28:	f5a9a1        	l32r	a10, 400d02cc <_image_irom_vaddr+0x2ac> (3ff44800 <GPIO+0x800>)
400d2c2b:	748040        	extui	a8, a4, 0, 8
400d2c2e:	0020c0        	memw
400d2c31:	144a82        	s8i	a8, a10, 20
400d2c34:	80a082        	movi	a8, 128
400d2c37:	203380        	or	a3, a3, a8
400d2c3a:	0b0c      	movi.n	a11, 0
400d2c3c:	08fd      	mov.n	a15, a8
400d2c3e:	000786        	j	400d2c60 <pinctrl_configure_pins+0xf0>
400d2c41:	f5a181        	l32r	a8, 400d02c8 <_image_irom_vaddr+0x2a8> (3ff44000 <GPIO>)
400d2c44:	0020c0        	memw
400d2c47:	3849      	s32i.n	a4, a8, 12
400d2c49:	00a1b2        	movi	a11, 0x100
400d2c4c:	0f0c      	movi.n	a15, 0
400d2c4e:	000386        	j	400d2c60 <pinctrl_configure_pins+0xf0>
400d2c51:	f59ea1        	l32r	a10, 400d02cc <_image_irom_vaddr+0x2ac> (3ff44800 <GPIO+0x800>)
400d2c54:	748040        	extui	a8, a4, 0, 8
400d2c57:	0020c0        	memw
400d2c5a:	184a82        	s8i	a8, a10, 24
400d2c5d:	fffa06        	j	400d2c49 <pinctrl_configure_pins+0xd9>
400d2c60:	180c      	movi.n	a8, 1
400d2c62:	401400        	ssl	a4
400d2c65:	a1a800        	sll	a10, a8
400d2c68:	41a9      	s32i.n	a10, a1, 16
400d2c6a:	41c8      	l32i.n	a12, a1, 16
400d2c6c:	f583e1        	l32r	a14, 400d0278 <_image_irom_vaddr+0x258> (eefffff <CONFIG_SYS_CLOCK_HW_CYCLES_PER_SEC+0xa1e3ff>)
400d2c6f:	0a0c      	movi.n	a10, 0
400d2c71:	10ece0        	and	a14, a12, a14
400d2c74:	0acd      	mov.n	a12, a10
400d2c76:	93c8e0        	movnez	a12, a8, a14
400d2c79:	7e2c      	movi.n	a14, 39
400d2c7b:	01be47        	bgeu	a14, a4, 400d2c80 <pinctrl_configure_pins+0x110>
400d2c7e:	0a8d      	mov.n	a8, a10
400d2c80:	10cc80        	and	a12, a12, a8
400d2c83:	291c16        	beqz	a12, 400d2f18 <pinctrl_configure_pins+0x3a8>
400d2c86:	f57d81        	l32r	a8, 400d027c <_image_irom_vaddr+0x25c> (3f4004d8 <rtc_io_num_map>)
400d2c89:	a08480        	addx4	a8, a4, a8
400d2c8c:	0888      	l32i.n	a8, a8, 0
400d2c8e:	02a896        	bltz	a8, 400d2cbc <pinctrl_configure_pins+0x14c>
400d2c91:	f575d1        	l32r	a13, 400d0268 <_image_irom_vaddr+0x248> (3f4000e8 <rtc_io_desc>)
400d2c94:	f0a880        	subx8	a10, a8, a8
400d2c97:	b0aad0        	addx8	a10, a10, a13
400d2c9a:	0ad8      	l32i.n	a13, a10, 0
400d2c9c:	1aa8      	l32i.n	a10, a10, 4
400d2c9e:	0020c0        	memw
400d2ca1:	0de8      	l32i.n	a14, a13, 0
400d2ca3:	61a9      	s32i.n	a10, a1, 24
400d2ca5:	71e9      	s32i.n	a14, a1, 28
400d2ca7:	61e8      	l32i.n	a14, a1, 24
400d2ca9:	fa7c      	movi.n	a10, -1
400d2cab:	30aae0        	xor	a10, a10, a14
400d2cae:	71e8      	l32i.n	a14, a1, 28
400d2cb0:	10aae0        	and	a10, a10, a14
400d2cb3:	0020c0        	memw
400d2cb6:	006da2        	s32i	a10, a13, 0
400d2cb9:	20dcc0        	or	a13, a12, a12
400d2cbc:	f571a1        	l32r	a10, 400d0280 <_image_irom_vaddr+0x260> (3f400048 <GPIO_PIN_MUX_REG>)
400d2cbf:	f53bc1        	l32r	a12, 400d01ac <_image_irom_vaddr+0x18c> (ffff8fff <_rtc_bss_end+0xafff8fff>)
400d2cc2:	a0a4a0        	addx4	a10, a4, a10
400d2cc5:	0aa8      	l32i.n	a10, a10, 0
400d2cc7:	0020c0        	memw
400d2cca:	0ae8      	l32i.n	a14, a10, 0
400d2ccc:	10cec0        	and	a12, a14, a12
400d2ccf:	1e0c      	movi.n	a14, 1
400d2cd1:	11ee30        	slli	a14, a14, 13
400d2cd4:	20cce0        	or	a12, a12, a14
400d2cd7:	0020c0        	memw
400d2cda:	0ac9      	s32i.n	a12, a10, 0
400d2cdc:	5d6317        	bbci	a3, 1, 400d2d3d <pinctrl_configure_pins+0x1cd>
400d2cdf:	9ddc      	bnez.n	a13, 400d2cfc <pinctrl_configure_pins+0x18c>
400d2ce1:	0020c0        	memw
400d2ce4:	0a88      	l32i.n	a8, a10, 0
400d2ce6:	7fafc2        	movi	a12, -129
400d2ce9:	1088c0        	and	a8, a8, a12
400d2cec:	0020c0        	memw
400d2cef:	0a89      	s32i.n	a8, a10, 0
400d2cf1:	0020c0        	memw
400d2cf4:	0a88      	l32i.n	a8, a10, 0
400d2cf6:	00a1c2        	movi	a12, 0x100
400d2cf9:	001746        	j	400d2d5a <pinctrl_configure_pins+0x1ea>
400d2cfc:	f55bc1        	l32r	a12, 400d0268 <_image_irom_vaddr+0x248> (3f4000e8 <rtc_io_desc>)
400d2cff:	f0a880        	subx8	a10, a8, a8
400d2d02:	b0aac0        	addx8	a10, a10, a12
400d2d05:	5ad8      	l32i.n	a13, a10, 20
400d2d07:	2d9c      	beqz.n	a13, 400d2d1d <pinctrl_configure_pins+0x1ad>
400d2d09:	0ac8      	l32i.n	a12, a10, 0
400d2d0b:	fa7c      	movi.n	a10, -1
400d2d0d:	0020c0        	memw
400d2d10:	0ce8      	l32i.n	a14, a12, 0
400d2d12:	30aad0        	xor	a10, a10, a13
400d2d15:	10aae0        	and	a10, a10, a14
400d2d18:	0020c0        	memw
400d2d1b:	0ca9      	s32i.n	a10, a12, 0
400d2d1d:	f552a1        	l32r	a10, 400d0268 <_image_irom_vaddr+0x248> (3f4000e8 <rtc_io_desc>)
400d2d20:	f08880        	subx8	a8, a8, a8
400d2d23:	b088a0        	addx8	a8, a8, a10
400d2d26:	48a8      	l32i.n	a10, a8, 16
400d2d28:	1eca16        	beqz	a10, 400d2f18 <pinctrl_configure_pins+0x3a8>
400d2d2b:	0888      	l32i.n	a8, a8, 0
400d2d2d:	0020c0        	memw
400d2d30:	08c8      	l32i.n	a12, a8, 0
400d2d32:	20aac0        	or	a10, a10, a12
400d2d35:	0020c0        	memw
400d2d38:	08a9      	s32i.n	a10, a8, 0
400d2d3a:	001786        	j	400d2d9c <pinctrl_configure_pins+0x22c>
400d2d3d:	5b6327        	bbci	a3, 2, 400d2d9c <pinctrl_configure_pins+0x22c>
400d2d40:	dddc      	bnez.n	a13, 400d2d61 <pinctrl_configure_pins+0x1f1>
400d2d42:	0020c0        	memw
400d2d45:	0a88      	l32i.n	a8, a10, 0
400d2d47:	ffaec2        	movi	a12, 0xfffffeff
400d2d4a:	1088c0        	and	a8, a8, a12
400d2d4d:	0020c0        	memw
400d2d50:	0a89      	s32i.n	a8, a10, 0
400d2d52:	0020c0        	memw
400d2d55:	0a88      	l32i.n	a8, a10, 0
400d2d57:	80a0c2        	movi	a12, 128
400d2d5a:	2088c0        	or	a8, a8, a12
400d2d5d:	000d86        	j	400d2d97 <pinctrl_configure_pins+0x227>
400d2d60:	00          	.byte 00
400d2d61:	f541c1        	l32r	a12, 400d0268 <_image_irom_vaddr+0x248> (3f4000e8 <rtc_io_desc>)
400d2d64:	f0d880        	subx8	a13, a8, a8
400d2d67:	b0ddc0        	addx8	a13, a13, a12
400d2d6a:	5da8      	l32i.n	a10, a13, 20
400d2d6c:	da8c      	beqz.n	a10, 400d2d7d <pinctrl_configure_pins+0x20d>
400d2d6e:	0dd8      	l32i.n	a13, a13, 0
400d2d70:	0020c0        	memw
400d2d73:	0de8      	l32i.n	a14, a13, 0
400d2d75:	20aae0        	or	a10, a10, a14
400d2d78:	0020c0        	memw
400d2d7b:	0da9      	s32i.n	a10, a13, 0
400d2d7d:	f08880        	subx8	a8, a8, a8
400d2d80:	b088c0        	addx8	a8, a8, a12
400d2d83:	48c8      	l32i.n	a12, a8, 16
400d2d85:	18fc16        	beqz	a12, 400d2f18 <pinctrl_configure_pins+0x3a8>
400d2d88:	08a8      	l32i.n	a10, a8, 0
400d2d8a:	f87c      	movi.n	a8, -1
400d2d8c:	0020c0        	memw
400d2d8f:	0ad8      	l32i.n	a13, a10, 0
400d2d91:	3088c0        	xor	a8, a8, a12
400d2d94:	1088d0        	and	a8, a8, a13
400d2d97:	0020c0        	memw
400d2d9a:	0a89      	s32i.n	a8, a10, 0
400d2d9c:	02e367        	bbsi	a3, 6, 400d2da2 <pinctrl_configure_pins+0x232>
400d2d9f:	004146        	j	400d2ea8 <pinctrl_configure_pins+0x338>
400d2da2:	f53581        	l32r	a8, 400d0278 <_image_irom_vaddr+0x258> (eefffff <CONFIG_SYS_CLOCK_HW_CYCLES_PER_SEC+0xa1e3ff>)
400d2da5:	41a8      	l32i.n	a10, a1, 16
400d2da7:	118a87        	bany	a10, a8, 400d2dbc <pinctrl_configure_pins+0x24c>
400d2daa:	0d0c      	movi.n	a13, 0
400d2dac:	0dcd      	mov.n	a12, a13
400d2dae:	07bd      	mov.n	a11, a7
400d2db0:	04ad      	mov.n	a10, a4
400d2db2:	f53781        	l32r	a8, 400d0290 <_image_irom_vaddr+0x270> (40009f0c <esp_rom_gpio_matrix_out>)
400d2db5:	0008e0        	callx8	a8
400d2db8:	005886        	j	400d2f1e <pinctrl_configure_pins+0x3ae>
400d2dbb:	00          	.byte 00
400d2dbc:	f543a1        	l32r	a10, 400d02c8 <_image_irom_vaddr+0x2a8> (3ff44000 <GPIO>)
400d2dbf:	20c482        	addi	a8, a4, 32
400d2dc2:	a088a0        	addx4	a8, a8, a10
400d2dc5:	0020c0        	memw
400d2dc8:	28a8      	l32i.n	a10, a8, 8
400d2dca:	076347        	bbci	a3, 4, 400d2dd5 <pinctrl_configure_pins+0x265>
400d2dcd:	4c0c      	movi.n	a12, 4
400d2dcf:	20aac0        	or	a10, a10, a12
400d2dd2:	000106        	j	400d2dda <pinctrl_configure_pins+0x26a>
400d2dd5:	bc7c      	movi.n	a12, -5
400d2dd7:	10aac0        	and	a10, a10, a12
400d2dda:	0020c0        	memw
400d2ddd:	28a9      	s32i.n	a10, a8, 8
400d2ddf:	f52aa1        	l32r	a10, 400d0288 <_image_irom_vaddr+0x268> (3ff44000 <GPIO>)
400d2de2:	180c      	movi.n	a8, 1
400d2de4:	8fbc      	beqz.n	a15, 400d2e20 <pinctrl_configure_pins+0x2b0>
400d2de6:	f538b1        	l32r	a11, 400d02c8 <_image_irom_vaddr+0x2a8> (3ff44000 <GPIO>)
400d2de9:	c9cc      	bnez.n	a9, 400d2df9 <pinctrl_configure_pins+0x289>
400d2deb:	401400        	ssl	a4
400d2dee:	a18800        	sll	a8, a8
400d2df1:	0020c0        	memw
400d2df4:	2b89      	s32i.n	a8, a11, 8
400d2df6:	001906        	j	400d2e5e <pinctrl_configure_pins+0x2ee>
400d2df9:	0020c0        	memw
400d2dfc:	5b98      	l32i.n	a9, a11, 20
400d2dfe:	401400        	ssl	a4
400d2e01:	a18800        	sll	a8, a8
400d2e04:	0020c0        	memw
400d2e07:	3199      	s32i.n	a9, a1, 12
400d2e09:	748080        	extui	a8, a8, 0, 8
400d2e0c:	0020c0        	memw
400d2e0f:	0c4182        	s8i	a8, a1, 12
400d2e12:	0020c0        	memw
400d2e15:	3188      	l32i.n	a8, a1, 12
400d2e17:	0020c0        	memw
400d2e1a:	5b89      	s32i.n	a8, a11, 20
400d2e1c:	001406        	j	400d2e70 <pinctrl_configure_pins+0x300>
400d2e1f:	00          	.byte 00
400d2e20:	8bbc      	beqz.n	a11, 400d2e5c <pinctrl_configure_pins+0x2ec>
400d2e22:	f529b1        	l32r	a11, 400d02c8 <_image_irom_vaddr+0x2a8> (3ff44000 <GPIO>)
400d2e25:	c9cc      	bnez.n	a9, 400d2e35 <pinctrl_configure_pins+0x2c5>
400d2e27:	401400        	ssl	a4
400d2e2a:	a18800        	sll	a8, a8
400d2e2d:	0020c0        	memw
400d2e30:	3b89      	s32i.n	a8, a11, 12
400d2e32:	000a06        	j	400d2e5e <pinctrl_configure_pins+0x2ee>
400d2e35:	0020c0        	memw
400d2e38:	6b98      	l32i.n	a9, a11, 24
400d2e3a:	401400        	ssl	a4
400d2e3d:	a18800        	sll	a8, a8
400d2e40:	0020c0        	memw
400d2e43:	2199      	s32i.n	a9, a1, 8
400d2e45:	748080        	extui	a8, a8, 0, 8
400d2e48:	0020c0        	memw
400d2e4b:	084182        	s8i	a8, a1, 8
400d2e4e:	0020c0        	memw
400d2e51:	2188      	l32i.n	a8, a1, 8
400d2e53:	0020c0        	memw
400d2e56:	6b89      	s32i.n	a8, a11, 24
400d2e58:	000506        	j	400d2e70 <pinctrl_configure_pins+0x300>
400d2e5b:	00          	.byte 00
400d2e5c:	09dc      	bnez.n	a9, 400d2e70 <pinctrl_configure_pins+0x300>
400d2e5e:	180c      	movi.n	a8, 1
400d2e60:	401400        	ssl	a4
400d2e63:	a18800        	sll	a8, a8
400d2e66:	0020c0        	memw
400d2e69:	9a89      	s32i.n	a8, a10, 36
400d2e6b:	000986        	j	400d2e95 <pinctrl_configure_pins+0x325>
400d2e6e:	00          	.byte 00
400d2e6f:	00          	.byte 00
400d2e70:	0020c0        	memw
400d2e73:	ca88      	l32i.n	a8, a10, 48
400d2e75:	0020c0        	memw
400d2e78:	1189      	s32i.n	a8, a1, 4
400d2e7a:	180c      	movi.n	a8, 1
400d2e7c:	401400        	ssl	a4
400d2e7f:	a18800        	sll	a8, a8
400d2e82:	748080        	extui	a8, a8, 0, 8
400d2e85:	0020c0        	memw
400d2e88:	044182        	s8i	a8, a1, 4
400d2e8b:	0020c0        	memw
400d2e8e:	1188      	l32i.n	a8, a1, 4
400d2e90:	0020c0        	memw
400d2e93:	ca89      	s32i.n	a8, a10, 48
400d2e95:	0d0c      	movi.n	a13, 0
400d2e97:	0dcd      	mov.n	a12, a13
400d2e99:	00a1b2        	movi	a11, 0x100
400d2e9c:	04ad      	mov.n	a10, a4
400d2e9e:	f4fc81        	l32r	a8, 400d0290 <_image_irom_vaddr+0x270> (40009f0c <esp_rom_gpio_matrix_out>)
400d2ea1:	0008e0        	callx8	a8
400d2ea4:	001286        	j	400d2ef2 <pinctrl_configure_pins+0x382>
400d2ea7:	00          	.byte 00
400d2ea8:	f4f8a1        	l32r	a10, 400d0288 <_image_irom_vaddr+0x268> (3ff44000 <GPIO>)
400d2eab:	e9cc      	bnez.n	a9, 400d2ebd <pinctrl_configure_pins+0x34d>
400d2ead:	180c      	movi.n	a8, 1
400d2eaf:	401400        	ssl	a4
400d2eb2:	a18800        	sll	a8, a8
400d2eb5:	0020c0        	memw
400d2eb8:	aa89      	s32i.n	a8, a10, 40
400d2eba:	000906        	j	400d2ee2 <pinctrl_configure_pins+0x372>
400d2ebd:	0020c0        	memw
400d2ec0:	da88      	l32i.n	a8, a10, 52
400d2ec2:	0020c0        	memw
400d2ec5:	0189      	s32i.n	a8, a1, 0
400d2ec7:	180c      	movi.n	a8, 1
400d2ec9:	401400        	ssl	a4
400d2ecc:	a18800        	sll	a8, a8
400d2ecf:	748080        	extui	a8, a8, 0, 8
400d2ed2:	0020c0        	memw
400d2ed5:	004182        	s8i	a8, a1, 0
400d2ed8:	0020c0        	memw
400d2edb:	0188      	l32i.n	a8, a1, 0
400d2edd:	0020c0        	memw
400d2ee0:	da89      	s32i.n	a8, a10, 52
400d2ee2:	f4ea81        	l32r	a8, 400d028c <_image_irom_vaddr+0x26c> (ffd114c <CONFIG_SYS_CLOCK_HW_CYCLES_PER_SEC+0x1aef54c>)
400d2ee5:	00a192        	movi	a9, 0x100
400d2ee8:	848a      	add.n	a8, a4, a8
400d2eea:	1188e0        	slli	a8, a8, 2
400d2eed:	0020c0        	memw
400d2ef0:	0899      	s32i.n	a9, a8, 0
400d2ef2:	f4e381        	l32r	a8, 400d0280 <_image_irom_vaddr+0x260> (3f400048 <GPIO_PIN_MUX_REG>)
400d2ef5:	a08480        	addx4	a8, a4, a8
400d2ef8:	0888      	l32i.n	a8, a8, 0
400d2efa:	0020c0        	memw
400d2efd:	0898      	l32i.n	a9, a8, 0
400d2eff:	0a0357        	bnone	a3, a5, 400d2f0d <pinctrl_configure_pins+0x39d>
400d2f02:	00a2a2        	movi	a10, 0x200
400d2f05:	2099a0        	or	a9, a9, a10
400d2f08:	0001c6        	j	400d2f13 <pinctrl_configure_pins+0x3a3>
400d2f0b:	00          	.byte 00
400d2f0c:	00          	.byte 00
400d2f0d:	ffada2        	movi	a10, 0xfffffdff
400d2f10:	1099a0        	and	a9, a9, a10
400d2f13:	0020c0        	memw
400d2f16:	0899      	s32i.n	a9, a8, 0
400d2f18:	026367        	bbci	a3, 6, 400d2f1e <pinctrl_configure_pins+0x3ae>
400d2f1b:	ffa2c6        	j	400d2daa <pinctrl_configure_pins+0x23a>
400d2f1e:	0b0357        	bnone	a3, a5, 400d2f2d <pinctrl_configure_pins+0x3bd>
400d2f21:	0c0c      	movi.n	a12, 0
400d2f23:	06bd      	mov.n	a11, a6
400d2f25:	04ad      	mov.n	a10, a4
400d2f27:	f4ea81        	l32r	a8, 400d02d0 <_image_irom_vaddr+0x2b0> (40009edc <esp_rom_gpio_matrix_in>)
400d2f2a:	0008e0        	callx8	a8
400d2f2d:	228b      	addi.n	a2, a2, 8
400d2f2f:	51e8      	l32i.n	a14, a1, 20
400d2f31:	0212e7        	beq	a2, a14, 400d2f37 <pinctrl_configure_pins+0x3c7>
400d2f34:	ff1286        	j	400d2b82 <pinctrl_configure_pins+0x12>
400d2f37:	020c      	movi.n	a2, 0
400d2f39:	0001c6        	j	400d2f44 <pinctrl_configure_pins+0x3d4>
400d2f3c:	a26c      	movi.n	a2, -22
400d2f3e:	000086        	j	400d2f44 <pinctrl_configure_pins+0x3d4>
400d2f41:	7aaf22        	movi	a2, -134
400d2f44:	f01d      	retw.n
	...

400d2f48 <chunk_size>:
400d2f48:	004136        	entry	a1, 32
400d2f4b:	b02320        	addx8	a2, a3, a2
400d2f4e:	011222        	l16ui	a2, a2, 2
400d2f51:	412120        	srli	a2, a2, 1
400d2f54:	f01d      	retw.n
	...

400d2f58 <set_chunk_used>:
400d2f58:	004136        	entry	a1, 32
400d2f5b:	b02320        	addx8	a2, a3, a2
400d2f5e:	011292        	l16ui	a9, a2, 2
400d2f61:	e87c      	movi.n	a8, -2
400d2f63:	108980        	and	a8, a9, a8
400d2f66:	348c      	beqz.n	a4, 400d2f6d <set_chunk_used+0x15>
400d2f68:	180c      	movi.n	a8, 1
400d2f6a:	208980        	or	a8, a9, a8
400d2f6d:	015282        	s16i	a8, a2, 2
400d2f70:	f01d      	retw.n
	...

400d2f74 <free_list_remove_bidx>:
400d2f74:	004136        	entry	a1, 32
400d2f77:	b0a320        	addx8	a10, a3, a2
400d2f7a:	031a82        	l16ui	a8, a10, 6
400d2f7d:	944b      	addi.n	a9, a4, 4
400d2f7f:	199387        	bne	a3, a8, 400d2f9c <free_list_remove_bidx+0x28>
400d2f82:	e87c      	movi.n	a8, -2
400d2f84:	401400        	ssl	a4
400d2f87:	818880        	src	a8, a8, a8
400d2f8a:	3248      	l32i.n	a4, a2, 12
400d2f8c:	a09920        	addx4	a9, a9, a2
400d2f8f:	104480        	and	a4, a4, a8
400d2f92:	3249      	s32i.n	a4, a2, 12
400d2f94:	020c      	movi.n	a2, 0
400d2f96:	0929      	s32i.n	a2, a9, 0
400d2f98:	000506        	j	400d2fb0 <free_list_remove_bidx+0x3c>
400d2f9b:	00          	.byte 00
400d2f9c:	021a42        	l16ui	a4, a10, 4
400d2f9f:	a09920        	addx4	a9, a9, a2
400d2fa2:	0989      	s32i.n	a8, a9, 0
400d2fa4:	b03420        	addx8	a3, a4, a2
400d2fa7:	035382        	s16i	a8, a3, 6
400d2faa:	b08820        	addx8	a8, a8, a2
400d2fad:	025842        	s16i	a4, a8, 4
400d2fb0:	f01d      	retw.n
	...

400d2fb4 <_ConfigAbsSyms>:
400d2fb4:	004136        	entry	a1, 32
400d2fb7:	f01d      	retw.n
400d2fb9:	000000        	ill

400d2fbc <sys_trace_idle>:
400d2fbc:	004136        	entry	a1, 32
400d2fbf:	f01d      	retw.n
400d2fc1:	000000        	ill

400d2fc4 <uart_hal_set_stop_bits>:
400d2fc4:	004136        	entry	a1, 32
400d2fc7:	0288      	l32i.n	a8, a2, 0
400d2fc9:	203366        	bnei	a3, 3, 400d2fed <uart_hal_set_stop_bits+0x29>
400d2fcc:	0020c0        	memw
400d2fcf:	112832        	l32i	a3, a8, 68
400d2fd2:	490c      	movi.n	a9, 4
400d2fd4:	203390        	or	a3, a3, a9
400d2fd7:	0020c0        	memw
400d2fda:	116832        	s32i	a3, a8, 68
400d2fdd:	0020c0        	memw
400d2fe0:	8838      	l32i.n	a3, a8, 32
400d2fe2:	cfaf92        	movi	a9, -49
400d2fe5:	103390        	and	a3, a3, a9
400d2fe8:	091c      	movi.n	a9, 16
400d2fea:	000846        	j	400d300f <uart_hal_set_stop_bits+0x4b>
400d2fed:	0020c0        	memw
400d2ff0:	112892        	l32i	a9, a8, 68
400d2ff3:	ba7c      	movi.n	a10, -5
400d2ff5:	1099a0        	and	a9, a9, a10
400d2ff8:	0020c0        	memw
400d2ffb:	116892        	s32i	a9, a8, 68
400d2ffe:	0020c0        	memw
400d3001:	8898      	l32i.n	a9, a8, 32
400d3003:	143030        	extui	a3, a3, 0, 2
400d3006:	cfafa2        	movi	a10, -49
400d3009:	1133c0        	slli	a3, a3, 4
400d300c:	1099a0        	and	a9, a9, a10
400d300f:	203930        	or	a3, a9, a3
400d3012:	0020c0        	memw
400d3015:	8839      	s32i.n	a3, a8, 32
400d3017:	f01d      	retw.n
400d3019:	000000        	ill

400d301c <uart_hal_get_stop_bits>:
400d301c:	004136        	entry	a1, 32
400d301f:	0298      	l32i.n	a9, a2, 0
400d3021:	0020c0        	memw
400d3024:	112982        	l32i	a8, a9, 68
400d3027:	0d6827        	bbci	a8, 2, 400d3038 <uart_hal_get_stop_bits+0x1c>
400d302a:	0020c0        	memw
400d302d:	89a8      	l32i.n	a10, a9, 32
400d302f:	03a082        	movi	a8, 3
400d3032:	14a4a0        	extui	a10, a10, 4, 2
400d3035:	071a26        	beqi	a10, 1, 400d3040 <uart_hal_get_stop_bits+0x24>
400d3038:	0020c0        	memw
400d303b:	8988      	l32i.n	a8, a9, 32
400d303d:	148480        	extui	a8, a8, 4, 2
400d3040:	0389      	s32i.n	a8, a3, 0
400d3042:	f01d      	retw.n

400d3044 <uart_hal_set_data_bit_num>:
400d3044:	004136        	entry	a1, 32
400d3047:	0298      	l32i.n	a9, a2, 0
400d3049:	143030        	extui	a3, a3, 0, 2
400d304c:	0020c0        	memw
400d304f:	8988      	l32i.n	a8, a9, 32
400d3051:	3a7c      	movi.n	a10, -13
400d3053:	1133e0        	slli	a3, a3, 2
400d3056:	1088a0        	and	a8, a8, a10
400d3059:	208830        	or	a8, a8, a3
400d305c:	0020c0        	memw
400d305f:	8989      	s32i.n	a8, a9, 32
400d3061:	f01d      	retw.n
	...

400d3064 <uart_hal_get_data_bit_num>:
400d3064:	004136        	entry	a1, 32
400d3067:	0288      	l32i.n	a8, a2, 0
400d3069:	0020c0        	memw
400d306c:	8888      	l32i.n	a8, a8, 32
400d306e:	148280        	extui	a8, a8, 2, 2
400d3071:	0389      	s32i.n	a8, a3, 0
400d3073:	f01d      	retw.n
400d3075:	000000        	ill

400d3078 <uart_hal_set_parity>:
400d3078:	004136        	entry	a1, 32
400d307b:	0298      	l32i.n	a9, a2, 0
400d307d:	339c      	beqz.n	a3, 400d3094 <uart_hal_set_parity+0x1c>
400d307f:	0020c0        	memw
400d3082:	8988      	l32i.n	a8, a9, 32
400d3084:	eb7c      	movi.n	a11, -2
400d3086:	04a030        	extui	a10, a3, 0, 1
400d3089:	1088b0        	and	a8, a8, a11
400d308c:	2088a0        	or	a8, a8, a10
400d308f:	0020c0        	memw
400d3092:	8989      	s32i.n	a8, a9, 32
400d3094:	0020c0        	memw
400d3097:	8988      	l32i.n	a8, a9, 32
400d3099:	043130        	extui	a3, a3, 1, 1
400d309c:	da7c      	movi.n	a10, -3
400d309e:	333a      	add.n	a3, a3, a3
400d30a0:	1088a0        	and	a8, a8, a10
400d30a3:	203830        	or	a3, a8, a3
400d30a6:	0020c0        	memw
400d30a9:	8939      	s32i.n	a3, a9, 32
400d30ab:	f01d      	retw.n
400d30ad:	000000        	ill

400d30b0 <uart_hal_get_parity>:
400d30b0:	004136        	entry	a1, 32
400d30b3:	0298      	l32i.n	a9, a2, 0
400d30b5:	080c      	movi.n	a8, 0
400d30b7:	0020c0        	memw
400d30ba:	89a8      	l32i.n	a10, a9, 32
400d30bc:	0c6a17        	bbci	a10, 1, 400d30cc <uart_hal_get_parity+0x1c>
400d30bf:	0020c0        	memw
400d30c2:	8988      	l32i.n	a8, a9, 32
400d30c4:	290c      	movi.n	a9, 2
400d30c6:	048080        	extui	a8, a8, 0, 1
400d30c9:	208890        	or	a8, a8, a9
400d30cc:	0389      	s32i.n	a8, a3, 0
400d30ce:	f01d      	retw.n

400d30d0 <uart_hal_get_hw_flow_ctrl>:
400d30d0:	004136        	entry	a1, 32
400d30d3:	0298      	l32i.n	a9, a2, 0
400d30d5:	080c      	movi.n	a8, 0
400d30d7:	0389      	s32i.n	a8, a3, 0
400d30d9:	0020c0        	memw
400d30dc:	9988      	l32i.n	a8, a9, 36
400d30de:	058780        	extui	a8, a8, 23, 1
400d30e1:	0389      	s32i.n	a8, a3, 0
400d30e3:	0020c0        	memw
400d30e6:	8998      	l32i.n	a9, a9, 32
400d30e8:	0669f7        	bbci	a9, 15, 400d30f2 <uart_hal_get_hw_flow_ctrl+0x22>
400d30eb:	290c      	movi.n	a9, 2
400d30ed:	208890        	or	a8, a8, a9
400d30f0:	0389      	s32i.n	a8, a3, 0
400d30f2:	f01d      	retw.n

400d30f4 <uart_hal_set_rxfifo_full_thr>:
400d30f4:	004136        	entry	a1, 32
400d30f7:	0298      	l32i.n	a9, a2, 0
400d30f9:	80afa2        	movi	a10, -128
400d30fc:	0020c0        	memw
400d30ff:	9988      	l32i.n	a8, a9, 36
400d3101:	643030        	extui	a3, a3, 0, 7
400d3104:	1088a0        	and	a8, a8, a10
400d3107:	208830        	or	a8, a8, a3
400d310a:	0020c0        	memw
400d310d:	9989      	s32i.n	a8, a9, 36
400d310f:	f01d      	retw.n
400d3111:	000000        	ill

400d3114 <uart_hal_get_symb_len>:
400d3114:	004136        	entry	a1, 32
400d3117:	0298      	l32i.n	a9, a2, 0
400d3119:	0020c0        	memw
400d311c:	89a8      	l32i.n	a10, a9, 32
400d311e:	0020c0        	memw
400d3121:	112922        	l32i	a2, a9, 68
400d3124:	14a2a0        	extui	a10, a10, 2, 2
400d3127:	aa6b      	addi.n	a10, a10, 6
400d3129:	2c6227        	bbci	a2, 2, 400d3159 <uart_hal_get_symb_len+0x45>
400d312c:	0020c0        	memw
400d312f:	8928      	l32i.n	a2, a9, 32
400d3131:	74c0a0        	extui	a12, a10, 0, 8
400d3134:	142420        	extui	a2, a2, 4, 2
400d3137:	1e1266        	bnei	a2, 1, 400d3159 <uart_hal_get_symb_len+0x45>
400d313a:	0020c0        	memw
400d313d:	89b8      	l32i.n	a11, a9, 32
400d313f:	220c      	movi.n	a2, 2
400d3141:	04b1b0        	extui	a11, a11, 1, 1
400d3144:	0b8d      	mov.n	a8, a11
400d3146:	02ad      	mov.n	a10, a2
400d3148:	6bbc      	beqz.n	a11, 400d3182 <uart_hal_get_symb_len+0x6e>
400d314a:	0020c0        	memw
400d314d:	8988      	l32i.n	a8, a9, 32
400d314f:	048080        	extui	a8, a8, 0, 1
400d3152:	208820        	or	a8, a8, a2
400d3155:	000a46        	j	400d3182 <uart_hal_get_symb_len+0x6e>
400d3158:	00          	.byte 00
400d3159:	0020c0        	memw
400d315c:	8928      	l32i.n	a2, a9, 32
400d315e:	0020c0        	memw
400d3161:	89b8      	l32i.n	a11, a9, 32
400d3163:	142420        	extui	a2, a2, 4, 2
400d3166:	080c      	movi.n	a8, 0
400d3168:	0c6b17        	bbci	a11, 1, 400d3178 <uart_hal_get_symb_len+0x64>
400d316b:	0020c0        	memw
400d316e:	8988      	l32i.n	a8, a9, 32
400d3170:	290c      	movi.n	a9, 2
400d3172:	048080        	extui	a8, a8, 0, 1
400d3175:	208890        	or	a8, a8, a9
400d3178:	74c0a0        	extui	a12, a10, 0, 8
400d317b:	1a0c      	movi.n	a10, 1
400d317d:	0122b6        	bltui	a2, 2, 400d3182 <uart_hal_get_symb_len+0x6e>
400d3180:	2a0c      	movi.n	a10, 2
400d3182:	090c      	movi.n	a9, 0
400d3184:	120c      	movi.n	a2, 1
400d3186:	832980        	moveqz	a2, a9, a8
400d3189:	aaca      	add.n	a10, a10, a12
400d318b:	2a2a      	add.n	a2, a10, a2
400d318d:	f01d      	retw.n
	...

400d3190 <ledc_hal_ls_channel_update>:
400d3190:	004136        	entry	a1, 32
400d3193:	1288      	l32i.n	a8, a2, 4
400d3195:	0298      	l32i.n	a9, a2, 0
400d3197:	a08880        	addx4	a8, a8, a8
400d319a:	1188b0        	slli	a8, a8, 5
400d319d:	a03330        	addx4	a3, a3, a3
400d31a0:	a03380        	addx4	a3, a3, a8
400d31a3:	893a      	add.n	a8, a9, a3
400d31a5:	0020c0        	memw
400d31a8:	0898      	l32i.n	a9, a8, 0
400d31aa:	021c      	movi.n	a2, 16
400d31ac:	209920        	or	a9, a9, a2
400d31af:	0020c0        	memw
400d31b2:	0899      	s32i.n	a9, a8, 0
400d31b4:	f01d      	retw.n
	...

400d31b8 <ledc_hal_set_duty_scale>:
400d31b8:	004136        	entry	a1, 32
400d31bb:	1288      	l32i.n	a8, a2, 4
400d31bd:	0298      	l32i.n	a9, a2, 0
400d31bf:	a08880        	addx4	a8, a8, a8
400d31c2:	1188b0        	slli	a8, a8, 5
400d31c5:	a03330        	addx4	a3, a3, a3
400d31c8:	a03380        	addx4	a3, a3, a8
400d31cb:	993a      	add.n	a9, a9, a3
400d31cd:	0020c0        	memw
400d31d0:	3988      	l32i.n	a8, a9, 12
400d31d2:	00ac22        	movi	a2, 0xfffffc00
400d31d5:	944040        	extui	a4, a4, 0, 10
400d31d8:	108820        	and	a8, a8, a2
400d31db:	208840        	or	a8, a8, a4
400d31de:	0020c0        	memw
400d31e1:	3989      	s32i.n	a8, a9, 12
400d31e3:	f01d      	retw.n
400d31e5:	000000        	ill

400d31e8 <ledc_hal_set_slow_clk>:
400d31e8:	004136        	entry	a1, 32
400d31eb:	02a8      	l32i.n	a10, a2, 0
400d31ed:	080c      	movi.n	a8, 0
400d31ef:	fdc332        	addi	a3, a3, -3
400d31f2:	190c      	movi.n	a9, 1
400d31f4:	839830        	moveqz	a9, a8, a3
400d31f7:	0020c0        	memw
400d31fa:	642a82        	l32i	a8, a10, 0x190
400d31fd:	eb7c      	movi.n	a11, -2
400d31ff:	1088b0        	and	a8, a8, a11
400d3202:	208890        	or	a8, a8, a9
400d3205:	0020c0        	memw
400d3208:	646a82        	s32i	a8, a10, 0x190
400d320b:	f01d      	retw.n
400d320d:	000000        	ill

400d3210 <_stdout_hook_default>:
400d3210:	004136        	entry	a1, 32
400d3213:	f27c      	movi.n	a2, -1
400d3215:	f01d      	retw.n
	...

400d3218 <clock_control_esp32_async_on>:
400d3218:	004136        	entry	a1, 32
400d321b:	7aaf22        	movi	a2, -134
400d321e:	f01d      	retw.n

400d3220 <gpio_esp32_port_get_raw>:
400d3220:	004136        	entry	a1, 32
400d3223:	1298      	l32i.n	a9, a2, 4
400d3225:	2988      	l32i.n	a8, a9, 8
400d3227:	3998      	l32i.n	a9, a9, 12
400d3229:	79cc      	bnez.n	a9, 400d3234 <gpio_esp32_port_get_raw+0x14>
400d322b:	0020c0        	memw
400d322e:	f888      	l32i.n	a8, a8, 60
400d3230:	000246        	j	400d323d <gpio_esp32_port_get_raw+0x1d>
400d3233:	00          	.byte 00
400d3234:	0020c0        	memw
400d3237:	400882        	l8ui	a8, a8, 64
400d323a:	748080        	extui	a8, a8, 0, 8
400d323d:	0389      	s32i.n	a8, a3, 0
400d323f:	020c      	movi.n	a2, 0
400d3241:	f01d      	retw.n
	...

400d3244 <gpio_esp32_port_set_masked_raw>:
400d3244:	004136        	entry	a1, 32
400d3247:	1288      	l32i.n	a8, a2, 4
400d3249:	0063a0        	rsil	a10, 3
400d324c:	38b8      	l32i.n	a11, a8, 12
400d324e:	2898      	l32i.n	a9, a8, 8
400d3250:	4bdc      	bnez.n	a11, 400d3268 <gpio_esp32_port_set_masked_raw+0x24>
400d3252:	0020c0        	memw
400d3255:	1988      	l32i.n	a8, a9, 4
400d3257:	304840        	xor	a4, a8, a4
400d325a:	104430        	and	a4, a4, a3
400d325d:	304480        	xor	a4, a4, a8
400d3260:	0020c0        	memw
400d3263:	1949      	s32i.n	a4, a9, 4
400d3265:	000686        	j	400d3283 <gpio_esp32_port_set_masked_raw+0x3f>
400d3268:	0020c0        	memw
400d326b:	100982        	l8ui	a8, a9, 16
400d326e:	748080        	extui	a8, a8, 0, 8
400d3271:	304840        	xor	a4, a8, a4
400d3274:	104430        	and	a4, a4, a3
400d3277:	308840        	xor	a8, a8, a4
400d327a:	748080        	extui	a8, a8, 0, 8
400d327d:	0020c0        	memw
400d3280:	104982        	s8i	a8, a9, 16
400d3283:	13e6a0        	wsr.ps	a10
400d3286:	002010        	rsync
400d3289:	020c      	movi.n	a2, 0
400d328b:	f01d      	retw.n
400d328d:	000000        	ill

400d3290 <gpio_esp32_port_set_bits_raw>:
400d3290:	004136        	entry	a1, 32
400d3293:	1298      	l32i.n	a9, a2, 4
400d3295:	2988      	l32i.n	a8, a9, 8
400d3297:	3998      	l32i.n	a9, a9, 12
400d3299:	79cc      	bnez.n	a9, 400d32a4 <gpio_esp32_port_set_bits_raw+0x14>
400d329b:	0020c0        	memw
400d329e:	2839      	s32i.n	a3, a8, 8
400d32a0:	000246        	j	400d32ad <gpio_esp32_port_set_bits_raw+0x1d>
400d32a3:	00          	.byte 00
400d32a4:	743030        	extui	a3, a3, 0, 8
400d32a7:	0020c0        	memw
400d32aa:	144832        	s8i	a3, a8, 20
400d32ad:	020c      	movi.n	a2, 0
400d32af:	f01d      	retw.n
400d32b1:	000000        	ill

400d32b4 <gpio_esp32_port_clear_bits_raw>:
400d32b4:	004136        	entry	a1, 32
400d32b7:	1298      	l32i.n	a9, a2, 4
400d32b9:	2988      	l32i.n	a8, a9, 8
400d32bb:	3998      	l32i.n	a9, a9, 12
400d32bd:	79cc      	bnez.n	a9, 400d32c8 <gpio_esp32_port_clear_bits_raw+0x14>
400d32bf:	0020c0        	memw
400d32c2:	3839      	s32i.n	a3, a8, 12
400d32c4:	000246        	j	400d32d1 <gpio_esp32_port_clear_bits_raw+0x1d>
400d32c7:	00          	.byte 00
400d32c8:	743030        	extui	a3, a3, 0, 8
400d32cb:	0020c0        	memw
400d32ce:	184832        	s8i	a3, a8, 24
400d32d1:	020c      	movi.n	a2, 0
400d32d3:	f01d      	retw.n
400d32d5:	000000        	ill

400d32d8 <gpio_esp32_port_toggle_bits>:
400d32d8:	004136        	entry	a1, 32
400d32db:	1288      	l32i.n	a8, a2, 4
400d32dd:	0063a0        	rsil	a10, 3
400d32e0:	3898      	l32i.n	a9, a8, 12
400d32e2:	2888      	l32i.n	a8, a8, 8
400d32e4:	09dc      	bnez.n	a9, 400d32f8 <gpio_esp32_port_toggle_bits+0x20>
400d32e6:	0020c0        	memw
400d32e9:	1898      	l32i.n	a9, a8, 4
400d32eb:	309930        	xor	a9, a9, a3
400d32ee:	0020c0        	memw
400d32f1:	1899      	s32i.n	a9, a8, 4
400d32f3:	0004c6        	j	400d330a <gpio_esp32_port_toggle_bits+0x32>
400d32f6:	00          	.byte 00
400d32f7:	00          	.byte 00
400d32f8:	0020c0        	memw
400d32fb:	100892        	l8ui	a9, a8, 16
400d32fe:	303390        	xor	a3, a3, a9
400d3301:	743030        	extui	a3, a3, 0, 8
400d3304:	0020c0        	memw
400d3307:	104832        	s8i	a3, a8, 16
400d330a:	13e6a0        	wsr.ps	a10
400d330d:	002010        	rsync
400d3310:	020c      	movi.n	a2, 0
400d3312:	f01d      	retw.n

400d3314 <gpio_esp32_manage_callback>:
400d3314:	004136        	entry	a1, 32
400d3317:	4288      	l32i.n	a8, a2, 16
400d3319:	744040        	extui	a4, a4, 0, 8
400d331c:	1898      	l32i.n	a9, a8, 4
400d331e:	f9bc      	beqz.n	a9, 400d3361 <gpio_esp32_manage_callback+0x4d>
400d3320:	259937        	bne	a9, a3, 400d3349 <gpio_esp32_manage_callback+0x35>
400d3323:	0001c6        	j	400d332e <gpio_esp32_manage_callback+0x1a>
400d3326:	00          	.byte 00
400d3327:	00          	.byte 00
400d3328:	1d9397        	bne	a3, a9, 400d3349 <gpio_esp32_manage_callback+0x35>
400d332b:	000186        	j	400d3335 <gpio_esp32_manage_callback+0x21>
400d332e:	0328      	l32i.n	a2, a3, 0
400d3330:	1829      	s32i.n	a2, a8, 4
400d3332:	0000c6        	j	400d3339 <gpio_esp32_manage_callback+0x25>
400d3335:	0398      	l32i.n	a9, a3, 0
400d3337:	0299      	s32i.n	a9, a2, 0
400d3339:	2898      	l32i.n	a9, a8, 8
400d333b:	019397        	bne	a3, a9, 400d3340 <gpio_esp32_manage_callback+0x2c>
400d333e:	2829      	s32i.n	a2, a8, 8
400d3340:	020c      	movi.n	a2, 0
400d3342:	0329      	s32i.n	a2, a3, 0
400d3344:	000646        	j	400d3361 <gpio_esp32_manage_callback+0x4d>
400d3347:	00          	.byte 00
400d3348:	00          	.byte 00
400d3349:	092d      	mov.n	a2, a9
400d334b:	0998      	l32i.n	a9, a9, 0
400d334d:	fd7956        	bnez	a9, 400d3328 <gpio_esp32_manage_callback+0x14>
400d3350:	a26c      	movi.n	a2, -22
400d3352:	649c      	beqz.n	a4, 400d336c <gpio_esp32_manage_callback+0x58>
400d3354:	1828      	l32i.n	a2, a8, 4
400d3356:	0329      	s32i.n	a2, a3, 0
400d3358:	2828      	l32i.n	a2, a8, 8
400d335a:	1839      	s32i.n	a3, a8, 4
400d335c:	a2cc      	bnez.n	a2, 400d336a <gpio_esp32_manage_callback+0x56>
400d335e:	000186        	j	400d3368 <gpio_esp32_manage_callback+0x54>
400d3361:	fef456        	bnez	a4, 400d3354 <gpio_esp32_manage_callback+0x40>
400d3364:	000086        	j	400d336a <gpio_esp32_manage_callback+0x56>
400d3367:	00          	.byte 00
400d3368:	2839      	s32i.n	a3, a8, 8
400d336a:	020c      	movi.n	a2, 0
400d336c:	f01d      	retw.n
	...

400d3370 <gpio_esp32_get_pending_int>:
400d3370:	006136        	entry	a1, 48
400d3373:	1298      	l32i.n	a9, a2, 4
400d3375:	03f520        	rsr.misc1	a2
400d3378:	140282        	l8ui	a8, a2, 20
400d337b:	1928      	l32i.n	a2, a9, 4
400d337d:	3998      	l32i.n	a9, a9, 12
400d337f:	29dc      	bnez.n	a9, 400d3395 <gpio_esp32_get_pending_int+0x25>
400d3381:	78cc      	bnez.n	a8, 400d338c <gpio_esp32_get_pending_int+0x1c>
400d3383:	0020c0        	memw
400d3386:	1a2222        	l32i	a2, a2, 104
400d3389:	000cc6        	j	400d33c0 <gpio_esp32_get_pending_int+0x50>
400d338c:	0020c0        	memw
400d338f:	182222        	l32i	a2, a2, 96
400d3392:	000a86        	j	400d33c0 <gpio_esp32_get_pending_int+0x50>
400d3395:	38dc      	bnez.n	a8, 400d33ac <gpio_esp32_get_pending_int+0x3c>
400d3397:	0020c0        	memw
400d339a:	1f2222        	l32i	a2, a2, 124
400d339d:	0020c0        	memw
400d33a0:	1129      	s32i.n	a2, a1, 4
400d33a2:	0020c0        	memw
400d33a5:	040122        	l8ui	a2, a1, 4
400d33a8:	000446        	j	400d33bd <gpio_esp32_get_pending_int+0x4d>
400d33ab:	00          	.byte 00
400d33ac:	0020c0        	memw
400d33af:	1d2222        	l32i	a2, a2, 116
400d33b2:	0020c0        	memw
400d33b5:	0129      	s32i.n	a2, a1, 0
400d33b7:	0020c0        	memw
400d33ba:	000122        	l8ui	a2, a1, 0
400d33bd:	742020        	extui	a2, a2, 0, 8
400d33c0:	f01d      	retw.n
	...

400d33c4 <uart_esp32_err_check>:
400d33c4:	004136        	entry	a1, 32
400d33c7:	4228      	l32i.n	a2, a2, 16
400d33c9:	c80c      	movi.n	a8, 12
400d33cb:	2228      	l32i.n	a2, a2, 8
400d33cd:	0020c0        	memw
400d33d0:	2228      	l32i.n	a2, a2, 8
400d33d2:	102280        	and	a2, a2, a8
400d33d5:	f01d      	retw.n
	...

400d33d8 <_OffsetAbsSyms>:
400d33d8:	004136        	entry	a1, 32
400d33db:	f01d      	retw.n
400d33dd:	000000        	ill
